L251 LINKER/LOCATER V4.66.93.0                                                          07/17/2022  02:20:12  PAGE 1


L251 LINKER/LOCATER V4.66.93.0, INVOKED BY:
D:\KEIL_V5\C251\BIN\L251.EXE .\Out_File\board.obj, .\Out_File\common.obj, .\Out_File\SEEKFREE_PRINTF.obj, ..\..\Librarie
>> s\libraries\STC_DFP.LIB, ..\..\..\..\STC16_FPMU_V1.0.LIB, ..\..\Libraries\libraries\STC16_MDU32_V1.0.LIB, .\Out_File\
>> zf_adc.obj, .\Out_File\zf_delay.obj, .\Out_File\zf_exti.obj, .\Out_File\zf_gpio.obj, .\Out_File\zf_iic.obj, .\Out_Fil
>> e\zf_nvic.obj, .\Out_File\zf_pwm.obj, .\Out_File\zf_spi.obj, .\Out_File\zf_tim.obj, .\Out_File\zf_uart.obj, .\Out_Fil
>> e\SEEKFREE_18TFT.obj, .\Out_File\SEEKFREE_ABSOLUTE_ENCODER.obj, .\Out_File\SEEKFREE_FONT.obj, .\Out_File\SEEKFREE_ICM
>> 20602.obj, .\Out_File\SEEKFREE_IIC.obj, .\Out_File\SEEKFREE_IPS114_SPI.obj, .\Out_File\SEEKFREE_MPU6050.obj, .\Out_Fi
>> le\SEEKFREE_OLED.obj, .\Out_File\SEEKFREE_TSL1401.obj, .\Out_File\SEEKFREE_VIRSCO.obj, .\Out_File\SEEKFREE_WIRELESS.o
>> bj, .\Out_File\SEEKFREE_AT24C02.obj, .\Out_File\SEEKFREE_BLUETOOTH_CH9141.obj, .\Out_File\zf_fifo.obj, .\Out_File\isr
>> .obj, .\Out_File\main.obj, .\Out_File\Fuzzy_pid.obj, .\Out_File\pid.obj, .\Out_File\ANO_DT.obj TO .\Out_File\SEEKFREE
>>  PRINT (.\Out_File\SEEKFREE.map) CASE DISABLEWARNING (16, 57) REMOVEUNUSED CLASSES (EDATA (0X0-0X1FFF), HDATA (0X0-0X
>> 1FFF))


CPU MODE:     251 SOURCE MODE
INTR FRAME:   2 BYTES SAVED ON INTERRUPT
MEMORY MODEL: XSMALL WITH FLOATING POINT ARITHMETIC


INPUT MODULES INCLUDED:
  .\Out_File\board.obj (board)
         COMMENT TYPE 0: C251 V5.60.0
  .\Out_File\common.obj (common)
         COMMENT TYPE 0: C251 V5.60.0
  .\Out_File\SEEKFREE_PRINTF.obj (SEEKFREE_PRINTF)
         COMMENT TYPE 0: C251 V5.60.0
  ..\..\Libraries\libraries\STC_DFP.LIB (DFPMU_SP)
         COMMENT TYPE 0: A251 V4.69.5.0
  ..\..\Libraries\libraries\STC16_MDU32_V1.0.LIB (STC_MDU32)
         COMMENT TYPE 0: A251 V4.69.13.0
  .\Out_File\zf_adc.obj (zf_adc)
         COMMENT TYPE 0: C251 V5.60.0
  .\Out_File\zf_delay.obj (zf_delay)
         COMMENT TYPE 0: C251 V5.60.0
  .\Out_File\zf_exti.obj (zf_exti)
         COMMENT TYPE 0: C251 V5.60.0
  .\Out_File\zf_gpio.obj (zf_gpio)
         COMMENT TYPE 0: C251 V5.60.0
  .\Out_File\zf_iic.obj (zf_iic)
         COMMENT TYPE 0: C251 V5.60.0
  .\Out_File\zf_nvic.obj (zf_nvic)
         COMMENT TYPE 0: C251 V5.60.0
  .\Out_File\zf_pwm.obj (zf_pwm)
         COMMENT TYPE 0: C251 V5.60.0
  .\Out_File\zf_spi.obj (zf_spi)
         COMMENT TYPE 0: C251 V5.60.0
  .\Out_File\zf_tim.obj (zf_tim)
         COMMENT TYPE 0: C251 V5.60.0
  .\Out_File\zf_uart.obj (zf_uart)
         COMMENT TYPE 0: C251 V5.60.0
  .\Out_File\SEEKFREE_18TFT.obj (SEEKFREE_18TFT)
         COMMENT TYPE 0: C251 V5.60.0
  .\Out_File\SEEKFREE_ABSOLUTE_ENCODER.obj (SEEKFREE_ABSOLUTE_ENCODER)
         COMMENT TYPE 0: C251 V5.60.0
  .\Out_File\SEEKFREE_FONT.obj (SEEKFREE_FONT)
         COMMENT TYPE 0: C251 V5.60.0
  .\Out_File\SEEKFREE_ICM20602.obj (SEEKFREE_ICM20602)
         COMMENT TYPE 0: C251 V5.60.0
  .\Out_File\SEEKFREE_IIC.obj (SEEKFREE_IIC)
         COMMENT TYPE 0: C251 V5.60.0
  .\Out_File\SEEKFREE_IPS114_SPI.obj (SEEKFREE_IPS114_SPI)
         COMMENT TYPE 0: C251 V5.60.0
  .\Out_File\SEEKFREE_MPU6050.obj (SEEKFREE_MPU6050)
         COMMENT TYPE 0: C251 V5.60.0
  .\Out_File\SEEKFREE_OLED.obj (SEEKFREE_OLED)
         COMMENT TYPE 0: C251 V5.60.0
L251 LINKER/LOCATER V4.66.93.0                                                        07/17/2022  02:20:12  PAGE 2


  .\Out_File\SEEKFREE_TSL1401.obj (SEEKFREE_TSL1401)
         COMMENT TYPE 0: C251 V5.60.0
  .\Out_File\SEEKFREE_VIRSCO.obj (SEEKFREE_VIRSCO)
         COMMENT TYPE 0: C251 V5.60.0
  .\Out_File\SEEKFREE_WIRELESS.obj (SEEKFREE_WIRELESS)
         COMMENT TYPE 0: C251 V5.60.0
  .\Out_File\SEEKFREE_AT24C02.obj (SEEKFREE_AT24C02)
         COMMENT TYPE 0: C251 V5.60.0
  .\Out_File\SEEKFREE_BLUETOOTH_CH9141.obj (SEEKFREE_BLUETOOTH_CH9141)
         COMMENT TYPE 0: C251 V5.60.0
  .\Out_File\zf_fifo.obj (zf_fifo)
         COMMENT TYPE 0: C251 V5.60.0
  .\Out_File\isr.obj (isr)
         COMMENT TYPE 0: C251 V5.60.0
  .\Out_File\main.obj (main)
         COMMENT TYPE 0: C251 V5.60.0
  .\Out_File\Fuzzy_pid.obj (Fuzzy_pid)
         COMMENT TYPE 0: C251 V5.60.0
  .\Out_File\pid.obj (pid)
         COMMENT TYPE 0: C251 V5.60.0
  .\Out_File\ANO_DT.obj (ANO_DT)
         COMMENT TYPE 0: C251 V5.60.0
  D:\KEIL_V5\C251\LIB\C2SFPXS.LIB (SPRINTF)
         COMMENT TYPE 0: A251 V4.69.6.0
  D:\KEIL_V5\C251\LIB\C2SFPXS.LIB (atan2)
         COMMENT TYPE 0: C251 V5.58.7
  D:\KEIL_V5\C251\LIB\C2SFPXS.LIB (?C?PRNFMT)
         COMMENT TYPE 0: A251 V4.69.6.0
  D:\KEIL_V5\C251\LIB\C2SFPXS.LIB (?C?FPCONVERT)
         COMMENT TYPE 0: A251 V4.69.6.0
  D:\KEIL_V5\C251\LIB\C2SFPXS.LIB (?C?FTNPWR)
         COMMENT TYPE 0: A251 V4.69.6.0
  D:\KEIL_V5\C251\LIB\C2SXS.LIB (?C_START)
         COMMENT TYPE 0: A251 V4.69.6.0
  D:\KEIL_V5\C251\LIB\C2SXS.LIB (?C?INITEDATA)
         COMMENT TYPE 0: A251 V4.69.6.0
  D:\KEIL_V5\C251\LIB\C2SXS.LIB (?C?SIDIV)
         COMMENT TYPE 0: A251 V4.69.6.0
  D:\KEIL_V5\C251\LIB\C2SXS.LIB (?C?LIMUL)
         COMMENT TYPE 0: A251 V4.69.6.0
  D:\KEIL_V5\C251\LIB\C2SXS.LIB (?C?BMOVENP)
         COMMENT TYPE 0: A251 V4.69.6.0
  D:\KEIL_V5\C251\LIB\C2SXS.LIB (STRNCMP)
         COMMENT TYPE 0: C251 V5.58.7
  D:\KEIL_V5\C251\LIB\C2SXS.LIB (STRLEN)
         COMMENT TYPE 0: C251 V5.58.7
  D:\KEIL_V5\C251\LIB\C2SXS.LIB (memcpy)
         COMMENT TYPE 0: C251 V5.58.7
  D:\KEIL_V5\C251\LIB\C2SXS.LIB (?C?INITEDATA_END)
         COMMENT TYPE 0: A251 V4.69.6.0


ACTIVE MEMORY CLASSES OF MODULE:  .\Out_File\SEEKFREE (board)

BASE        START       END         USED      MEMORY CLASS
==========================================================
000000H     000000H     001FFFH     0007B5H   EDATA
000000H     000000H     001FFFH               HDATA
FF0000H     FF0000H     FFFFFFH     0055F7H   CODE
000000H     FF0000H     FFFFFFH     000BE6H   HCONST
FF0000H     FF0000H     FFFFFFH     000004H   CONST
000000H     000000H     00007FH     000008H   DATA


MEMORY MAP OF MODULE:  .\Out_File\SEEKFREE (board)
L251 LINKER/LOCATER V4.66.93.0                                                        07/17/2022  02:20:12  PAGE 3




START     STOP      LENGTH    ALIGN  RELOC    MEMORY CLASS   SEGMENT NAME
=========================================================================
000000H   000007H   000008H   ---    AT..     DATA           "REG BANK 0"
000008H   00025EH   000257H   BYTE   UNIT     EDATA          ?ED?ISR
00025FH   00035FH   000101H   BYTE   UNIT     EDATA          ?ED?SEEKFREE_TSL1401
000360H   00042CH   0000CDH   BYTE   UNIT     EDATA          ?ED?ZF_UART
00042DH   0004ECH   0000C0H   BYTE   UNIT     EDATA          ?ED?FUZZY_PID
0004EDH   00054EH   000062H   BYTE   UNIT     EDATA          ?ED?SEEKFREE_ICM20602
00054FH   0005AAH   00005CH   BYTE   UNIT     EDATA          ?ED?PID
0005ABH   0005FCH   000052H   BYTE   UNIT     EDATA          _EDATA_GROUP_
0005FDH   00063AH   00003EH   BYTE   UNIT     EDATA          ?ED?SEEKFREE_BLUETOOTH_CH9141
00063BH   00066DH   000033H   BYTE   UNIT     EDATA          ?ED?ANO_DT
00066EH   000695H   000028H   BYTE   UNIT     EDATA          ?ED?MAIN
000696H   0006A1H   00000CH   BYTE   UNIT     EDATA          ?ED?SEEKFREE_MPU6050
0006A2H   0006ABH   00000AH   BYTE   UNIT     EDATA          ?ED?SEEKFREE_VIRSCO
0006ACH   0006B2H   000007H   BYTE   UNIT     EDATA          ?ED?SEEKFREE_IIC
0006B3H   0006B6H   000004H   BYTE   UNIT     EDATA          ?ED?BOARD
0006B7H   0006BAH   000004H   BYTE   UNIT     EDATA          ?ED?ZF_DELAY
0006BBH   0006BCH   000002H   BYTE   UNIT     EDATA          ?ED?COMMON
0006BDH   0007BCH   000100H   BYTE   UNIT     EDATA          ?STACK
0007BDH   FEFFFFH   FEF843H   ---    ---      **GAP**
FF0000H   FF0002H   000003H   ---    OFFS..   CODE           ?CO?start251?4
FF0003H   FF0005H   000003H   ---    OFFS..   CODE           ?PR?IV?0
FF0006H   FF0009H   000004H   BYTE   UNIT     CODE           ?PR?FPADD?DFPMU_SP
FF000AH   FF000AH   000001H   BYTE   INSEG    CODE           ?PR?TM0_ISR?ISR
FF000BH   FF000DH   000003H   ---    OFFS..   CODE           ?PR?IV?1
FF000EH   FF0011H   000004H   BYTE   UNIT     CODE           ?PR?FPSUB?DFPMU_SP
FF0012H   FF0012H   000001H   BYTE   INSEG    CODE           ?PR?TM1_ISR?ISR
FF0013H   FF0015H   000003H   ---    OFFS..   CODE           ?PR?IV?2
FF0016H   FF0019H   000004H   BYTE   UNIT     CODE           ?PR?FPMUL?DFPMU_SP
FF001AH   FF001AH   000001H   ---    ---      **GAP**
FF001BH   FF001DH   000003H   ---    OFFS..   CODE           ?PR?IV?3
FF001EH   FF0021H   000004H   BYTE   UNIT     CODE           ?PR?FPDIV?DFPMU_SP
FF0022H   FF0022H   000001H   ---    ---      **GAP**
FF0023H   FF0025H   000003H   ---    OFFS..   CODE           ?PR?IV?4
FF0026H   FF0041H   00001CH   BYTE   INSEG    CODE           ?PR?SCCB_WAITACK?SEEKFREE_IIC
FF0042H   FF0042H   000001H   ---    ---      **GAP**
FF0043H   FF0045H   000003H   ---    OFFS..   CODE           ?PR?IV?8
FF0046H   FF0051H   00000CH   BYTE   UNIT     CODE           ?PR?FPCMP?DFPMU_SP
FF0052H   FF0052H   000001H   ---    ---      **GAP**
FF0053H   FF0055H   000003H   ---    OFFS..   CODE           ?PR?IV?10
FF0056H   FF0059H   000004H   BYTE   UNIT     CODE           ?PR?SQRT?DFPMU_SP
FF005AH   FF005AH   000001H   ---    ---      **GAP**
FF005BH   FF005DH   000003H   ---    OFFS..   CODE           ?PR?IV?11
FF005EH   FF0061H   000004H   BYTE   UNIT     CODE           ?PR?FCASTL?DFPMU_SP
FF0062H   FF0062H   000001H   ---    ---      **GAP**
FF0063H   FF0065H   000003H   ---    OFFS..   CODE           ?PR?IV?12
FF0066H   FF007EH   000019H   BYTE   INSEG    CODE           ?PR?AT24C02_WRITE_BYTE?SEEKFREE_AT24C02
FF007FH   FF0082H   000004H   BYTE   UNIT     CODE           ?PR?ULDIV?STC_MDU32
FF0083H   FF0085H   000003H   ---    OFFS..   CODE           ?PR?IV?16
FF0086H   FF0089H   000004H   BYTE   UNIT     CODE           ?PR?ULIDIV?STC_MDU32
FF008AH   FF008AH   000001H   ---    ---      **GAP**
FF008BH   FF008DH   000003H   ---    OFFS..   CODE           ?PR?IV?17
FF008EH   FF0091H   000004H   BYTE   UNIT     CODE           ?PR?SLDIV?STC_MDU32
FF0092H   FF0092H   000001H   ---    ---      **GAP**
FF0093H   FF0095H   000003H   ---    OFFS..   CODE           ?PR?IV?18
FF0096H   FF0098H   000003H   BYTE   INSEG    CODE           ?PR?ENABLEGLOBALIRQ?BOARD
FF0099H   FF009AH   000002H   ---    ---      **GAP**
FF009BH   FF009DH   000003H   ---    OFFS..   CODE           ?PR?IV?19
FF009EH   FF00A0H   000003H   BYTE   INSEG    CODE           ?PR?DISABLEGLOBALIRQ?BOARD
FF00A1H   FF00A2H   000002H   ---    ---      **GAP**
FF00A3H   FF00A5H   000003H   ---    OFFS..   CODE           ?PR?IV?20
FF00A6H   FF0EADH   000E08H   BYTE   UNIT     CODE           ?CO?SEEKFREE_FONT
L251 LINKER/LOCATER V4.66.93.0                                                        07/17/2022  02:20:12  PAGE 4


FF0EAEH   FF14D9H   00062CH   BYTE   UNIT     CODE           ?C?LIB_CODE
FF14DAH   FF1A27H   00054EH   BYTE   INSEG    CODE           ?PR?ADV_INIT?ISR
FF1A28H   FF1E27H   000400H   BYTE   INSEG    CODE           ?PR?VIEW_1_HANDLE?ISR
FF1E28H   FF221EH   0003F7H   BYTE   INSEG    CODE           ?PR?GPIO_MODE?ZF_GPIO
FF221FH   FF25B7H   000399H   BYTE   INSEG    CODE           ?PR?VIEW_2_HANDLE?ISR
FF25B8H   FF294CH   000395H   BYTE   INSEG    CODE           ?PR?VIEW_0_HANDLE?ISR
FF294DH   FF2CBEH   000372H   BYTE   INSEG    CODE           ?PR?ROUND_HANDLE?ISR
FF2CBFH   FF2FC0H   000302H   BYTE   INSEG    CODE           ?PR?VIEW_3_HANDLE?ISR
FF2FC1H   FF32A4H   0002E4H   BYTE   INSEG    CODE           ?PR?PWM_INIT?ZF_PWM
FF32A5H   FF3545H   0002A1H   BYTE   INSEG    CODE           ?PR?PWM_SET_GPIO?ZF_PWM
FF3546H   FF37D3H   00028EH   BYTE   INSEG    CODE           ?PR?TM4_ISR?ISR
FF37D4H   FF3A17H   000244H   BYTE   INSEG    CODE           ?PR?SHOW_DIRVE?ISR
FF3A18H   FF3C5AH   000243H   BYTE   INSEG    CODE           ?PR?CROSS_HANDLE?ISR
FF3C5BH   FF3E49H   0001EFH   BYTE   INSEG    CODE           ?PR?LCD_INIT_SIMSPI?SEEKFREE_18TFT
FF3E4AH   FF4008H   0001BFH   BYTE   INSEG    CODE           ?PR?UART_INIT?ZF_UART
FF4009H   FF418AH   000182H   BYTE   INSEG    CODE           ?PR?FORK_LHANDLE?ISR
FF418BH   FF430BH   000181H   BYTE   INSEG    CODE           ?PR?SHIBIE?ISR
FF430CH   FF4489H   00017EH   BYTE   INSEG    CODE           ?PR?READ_ADC?ISR
FF448AH   FF45EAH   000161H   BYTE   INSEG    CODE           ?PR?FORK_RHANDLE?ISR
FF45EBH   FF46F2H   000108H   BYTE   INSEG    CODE           ?PR?MAIN?MAIN
FF46F3H   FF47C1H   0000CFH   BYTE   INSEG    CODE           ?PR?DATE_ANALYSE?ISR
FF47C2H   FF487BH   0000BAH   BYTE   INSEG    CODE           ?PR?SET_CLK?BOARD
FF487CH   FF4933H   0000B8H   BYTE   INSEG    CODE           ?PR?PWM_DUTY?ZF_PWM
FF4934H   FF49CFH   00009CH   BYTE   INSEG    CODE           ?PR?INCREMENTAL_PI_L?PID
FF49D0H   FF4A6BH   00009CH   BYTE   INSEG    CODE           ?PR?INCREMENTAL_PI_R?PID
FF4A6CH   FF4B03H   000098H   BYTE   INSEG    CODE           ?PR?DESCENT_HANDLE?ISR
FF4B04H   FF4B97H   000094H   BYTE   INSEG    CODE           ?PR?PIT_TIMER_MS?ZF_TIM
FF4B98H   FF4C27H   000090H   BYTE   INSEG    CODE           ?PR?BOARD_INIT?BOARD
FF4C28H   FF4CB3H   00008CH   BYTE   INSEG    CODE           ?PR?LCD_SHOWCHAR_SIMSPI?SEEKFREE_18TFT
FF4CB4H   FF4D33H   000080H   BYTE   INSEG    CODE           ?PR?NORMAL_HANDLE?ISR
FF4D34H   FF4DA1H   00006EH   BYTE   INSEG    CODE           ?PR?CTIMER_COUNT_READ?ZF_TIM
FF4DA2H   FF4E05H   000064H   BYTE   INSEG    CODE           ?PR?ERR_GET_F?ISR
FF4E06H   FF4E67H   000062H   BYTE   INSEG    CODE           ?PR?UART4_ISR?ISR
FF4E68H   FF4EC5H   00005EH   BYTE   INSEG    CODE           ?PR?ADC_INIT?ZF_ADC
FF4EC6H   FF4F13H   00004EH   BYTE   INSEG    CODE           ?PR?LCD_SHOWSTR_SIMSPI?SEEKFREE_18TFT
FF4F14H   FF4F61H   00004EH   BYTE   INSEG    CODE           ?PR?TFTLCD_SHOW?ISR
FF4F62H   FF4FADH   00004CH   BYTE   INSEG    CODE           ?PR?LCD_SET_REGION_SIMSPI?SEEKFREE_18TFT
FF4FAEH   FF4FF7H   00004AH   BYTE   INSEG    CODE           ?PR?CTIMER_COUNT_INIT?ZF_TIM
FF4FF8H   FF503BH   000044H   BYTE   INSEG    CODE           ?PR?TURN_CONTROL?ISR
FF503CH   FF507DH   000042H   BYTE   INSEG    CODE           ?PR?SPLIT_ULTRASONIC_CALLBACK?ISR
FF507EH   FF50BDH   000040H   BYTE   INSEG    CODE           ?PR?PID_DUOJI_NORMAL_SQRT?PID
FF50BEH   FF50D0H   000013H   BYTE   UNIT     CODE           ?C_C51STARTUP
FF50D1H   FF50F9H   000029H   BYTE   UNIT     CODE           ?C_C51STARTUP?2
FF50FAH   FF50FCH   000003H   BYTE   UNIT     CODE           ?C_C51STARTUP?3
FF50FDH   FF5139H   00003DH   BYTE   INSEG    CODE           ?PR?UART1_ISR?ISR
FF513AH   FF5174H   00003BH   BYTE   INSEG    CODE           ?PR?READ_CH?SEEKFREE_IIC
FF5175H   FF51AEH   00003AH   BYTE   INSEG    CODE           ?PR?ERR_GET?ISR
FF51AFH   FF51E8H   00003AH   BYTE   INSEG    CODE           ?PR?ERR_GET_CROSS?ISR
FF51E9H   FF5221H   000039H   BYTE   INSEG    CODE           ?PR?DELAY_INIT?ZF_DELAY
FF5222H   FF525AH   000039H   BYTE   INSEG    CODE           ?PR?CONTROL?ISR
FF525BH   FF528EH   000034H   BYTE   INSEG    CODE           ?PR?SIMIIC_READ_REG?SEEKFREE_IIC
FF528FH   FF52C1H   000033H   BYTE   INSEG    CODE           ?PR?TM2_ISR?ISR
FF52C2H   FF52F1H   000030H   BYTE   INSEG    CODE           ?PR?STAR_HANDLE?ISR
FF52F2H   FF5320H   00002FH   BYTE   INSEG    CODE           ?PR?AT24C02_WRITE_UINT16?SEEKFREE_AT24C02
FF5321H   FF534EH   00002EH   BYTE   INSEG    CODE           ?PR?ADC_ONCE?ZF_ADC
FF534FH   FF537CH   00002EH   BYTE   INSEG    CODE           ?PR?SEND_CH?SEEKFREE_IIC
FF537DH   FF53AAH   00002EH   BYTE   INSEG    CODE           ?PR?AT24C02_READ_UINT16?SEEKFREE_AT24C02
FF53ABH   FF53D6H   00002CH   BYTE   INSEG    CODE           ?PR?LCD_WRITEDATA_16BIT_SIMSPI?SEEKFREE_18TFT
FF53D7H   FF5401H   00002BH   BYTE   INSEG    CODE           ?PR?LCD_CLEAR_SIMSPI?SEEKFREE_18TFT
FF5402H   FF542AH   000029H   BYTE   INSEG    CODE           ?PR?LCD_WRITEINDEX_SIMSPI?SEEKFREE_18TFT
FF542BH   FF5453H   000029H   BYTE   INSEG    CODE           ?PR?LCD_WRITEDATA_SIMSPI?SEEKFREE_18TFT
FF5454H   FF547AH   000027H   BYTE   INSEG    CODE           ?PR?UART3_ISR?ISR
FF547BH   FF54A0H   000026H   BYTE   INSEG    CODE           ?PR?INT0_ISR?ISR
FF54A1H   FF54C2H   000022H   BYTE   INSEG    CODE           ?PR?SIMIIC_WRITE_REG?SEEKFREE_IIC
FF54C3H   FF54E2H   000020H   BYTE   INSEG    CODE           ?PR?SIMIIC_SENDACK?SEEKFREE_IIC
L251 LINKER/LOCATER V4.66.93.0                                                        07/17/2022  02:20:12  PAGE 5


FF54E3H   FF5502H   000020H   BYTE   INSEG    CODE           ?PR?KEY_READ?ISR
FF5503H   FF5521H   00001FH   BYTE   INSEG    CODE           ?PR?ERR_IN_CROSS?ISR
FF5522H   FF553FH   00001EH   BYTE   INSEG    CODE           ?PR?UART2_ISR?ISR
FF5540H   FF5556H   000017H   BYTE   INSEG    CODE           ?PR?DELAY_MS?ZF_DELAY
FF5557H   FF556DH   000017H   BYTE   INSEG    CODE           ?PR?AT24C02_READ_BYTE?SEEKFREE_AT24C02
FF556EH   FF557EH   000011H   BYTE   INSEG    CODE           ?PR?SIMIIC_STOP?SEEKFREE_IIC
FF557FH   FF558FH   000011H   BYTE   INSEG    CODE           ?PR?INT2_ISR?ISR
FF5590H   FF55A0H   000011H   BYTE   INSEG    CODE           ?PR?INT3_ISR?ISR
FF55A1H   FF55B1H   000011H   BYTE   INSEG    CODE           ?PR?ABS_FLOAT?PID
FF55B2H   FF55C0H   00000FH   BYTE   INSEG    CODE           ?PR?SIMIIC_START?SEEKFREE_IIC
FF55C1H   FF55CEH   00000EH   BYTE   INSEG    CODE           ?PR?INT1_ISR?ISR
FF55CFH   FF55D9H   00000BH   BYTE   INSEG    CODE           ?PR?SIMIIC_DELAY?SEEKFREE_IIC
FF55DAH   FF55E1H   000008H   BYTE   INSEG    CODE           ?PR?INT4_ISR?ISR
FF55E2H   FF55E9H   000008H   BYTE   INSEG    CODE           ?PR?TM3_ISR?ISR
FF55EAH   FF55F0H   000007H   BYTE   UNIT     CODE           ?PR?FCHS?DFPMU_SP
FF55F1H   FF55F6H   000006H   BYTE   UNIT     CODE           ?PR?CASTF?DFPMU_SP
FF55F7H   FF55FCH   000006H   BYTE   UNIT     CODE           ?PR?FCASTC?DFPMU_SP
FF55FDH   FF5602H   000006H   BYTE   UNIT     CODE           ?PR?FCASTI?DFPMU_SP
FF5603H   FF5606H   000004H   BYTE   UNIT     CONST          ?CO?PRINTF
FF5607H   FF5B7FH   000579H   BYTE   UNIT     HCONST         ?HC?ISR
FF5B80H   FF6026H   0004A7H   BYTE   UNIT     HCONST         ?C_INITEDATA
FF6027H   FF60FCH   0000D6H   BYTE   UNIT     HCONST         ?HC?FUZZY_PID
FF60FDH   FF617EH   000082H   BYTE   UNIT     HCONST         ?HC?SEEKFREE_BLUETOOTH_CH9141
FF617FH   FF61D6H   000058H   BYTE   UNIT     HCONST         ?HC?ZF_PWM
FF61D7H   FF61E0H   00000AH   BYTE   UNIT     HCONST         ?HC?SEEKFREE_OLED
FF61E1H   FF61E6H   000006H   BYTE   UNIT     HCONST         ?HC?SEEKFREE_18TFT
FF61E7H   FF61ECH   000006H   BYTE   UNIT     HCONST         ?HC?SEEKFREE_IPS114_SPI

* * * * * * * * *   R E M O V E D     S E G M E N T S   * * * * * * * *
   *DEL*:           0001A9H   BYTE   INSEG    CODE           ?PR?GET_CLK?BOARD
   *DEL*:           00000EH   BYTE   INSEG    CODE           ?PR?PUTCHAR?BOARD
   *DEL*:           000092H   BYTE   INSEG    CODE           ?PR?NUMBER_CONVERSION_ASCII?SEEKFREE_PRINTF
   *DEL*:           0004FAH   BYTE   INSEG    CODE           ?PR?ZF_SPRINTF?SEEKFREE_PRINTF
   *DEL*:           00003EH   BYTE   INSEG    CODE           ?PR?PRINTF_REVERSE_ORDER?SEEKFREE_PRINTF
   *DEL*:           000001H   BYTE   UNIT     EDATA          ?ED?NUMBER_CONVERSION_ASCII?SEEKFREE_PRINTF
   *DEL*:           00005FH   BYTE   UNIT     EDATA          ?ED?ZF_SPRINTF?SEEKFREE_PRINTF
   *DEL*:           000006H   BYTE   UNIT     CODE           ?PR?FXAM?DFPMU_SP
   *DEL*:           000007H   BYTE   UNIT     CODE           ?PR?FABS?DFPMU_SP
   *DEL*:           000004H   BYTE   UNIT     CODE           ?PR?SIN?DFPMU_SP
   *DEL*:           000004H   BYTE   UNIT     CODE           ?PR?COS?DFPMU_SP
   *DEL*:           000004H   BYTE   UNIT     CODE           ?PR?TAN?DFPMU_SP
   *DEL*:           00000AH   BYTE   UNIT     CODE           ?PR?ATAN?DFPMU_SP
   *DEL*:           000004H   BYTE   UNIT     CODE           ?PR?FCLEX?DFPMU_SP
   *DEL*:           000004H   BYTE   UNIT     CODE           ?PR?FINIT?DFPMU_SP
   *DEL*:           000006H   BYTE   UNIT     CODE           ?PR?FPSRR?DFPMU_SP
   *DEL*:           000006H   BYTE   UNIT     CODE           ?PR?FPSRW?DFPMU_SP
   *DEL*:           000006H   BYTE   UNIT     CODE           ?PR?FPCRR?DFPMU_SP
   *DEL*:           000006H   BYTE   UNIT     CODE           ?PR?FPCRW?DFPMU_SP
   *DEL*:           000004H   BYTE   UNIT     CODE           ?PR?LMUL?STC_MDU32
   *DEL*:           000019H   BYTE   INSEG    CODE           ?PR?DELAY_US?ZF_DELAY
   *DEL*:           00003EH   BYTE   INSEG    CODE           ?PR?EXIT_INIT?ZF_EXTI
   *DEL*:           00006EH   BYTE   INSEG    CODE           ?PR?GPIO_PULL_SET?ZF_GPIO
   *DEL*:           000017H   BYTE   INSEG    CODE           ?PR?SEND_DATA?ZF_IIC
   *DEL*:           00002FH   BYTE   INSEG    CODE           ?PR?IIC_CHANGE_PIN?ZF_IIC
   *DEL*:           00001CH   BYTE   INSEG    CODE           ?PR?RECV_DATA?ZF_IIC
   *DEL*:           000010H   BYTE   INSEG    CODE           ?PR?START?ZF_IIC
   *DEL*:           000045H   BYTE   INSEG    CODE           ?PR?WAIT?ZF_IIC
   *DEL*:           000018H   BYTE   INSEG    CODE           ?PR?SEND_ACK?ZF_IIC
   *DEL*:           000010H   BYTE   INSEG    CODE           ?PR?RECV_ACK?ZF_IIC
   *DEL*:           000010H   BYTE   INSEG    CODE           ?PR?STOP?ZF_IIC
   *DEL*:           000019H   BYTE   INSEG    CODE           ?PR?SEND_NAK?ZF_IIC
   *DEL*:           00005EH   BYTE   INSEG    CODE           ?PR?IIC_INIT?ZF_IIC
   *DEL*:           000075H   BYTE   INSEG    CODE           ?PR?IIC_READ_REG?ZF_IIC
   *DEL*:           00009CH   BYTE   INSEG    CODE           ?PR?IIC_READ_REG_BYTES?ZF_IIC
   *DEL*:           000060H   BYTE   INSEG    CODE           ?PR?IIC_WRITE_REG?ZF_IIC
L251 LINKER/LOCATER V4.66.93.0                                                        07/17/2022  02:20:12  PAGE 6


   *DEL*:           000015H   BYTE   INSEG    CODE           ?PR?IIC_DELAY_US?ZF_IIC
   *DEL*:           000004H   BYTE   UNIT     EDATA          ?ED?IIC_INIT?ZF_IIC
   *DEL*:           000004H   BYTE   UNIT     EDATA          ?ED?IIC_READ_REG?ZF_IIC
   *DEL*:           000003H   BYTE   UNIT     EDATA          ?ED?IIC_READ_REG_BYTES?ZF_IIC
   *DEL*:           00006CH   BYTE   INSEG    CODE           ?PR?NVIC_SETPRIORITY?ZF_NVIC
   *DEL*:           000121H   BYTE   INSEG    CODE           ?PR?PWM_FREQ?ZF_PWM
   *DEL*:           000004H   BYTE   UNIT     EDATA          ?ED?PWM_FREQ?ZF_PWM
   *DEL*:           00001DH   BYTE   INSEG    CODE           ?PR?SPI_CHANGE_MODE?ZF_SPI
   *DEL*:           0000AEH   BYTE   INSEG    CODE           ?PR?SPI_CHANGE_PIN?ZF_SPI
   *DEL*:           0000DFH   BYTE   INSEG    CODE           ?PR?SPI_INIT?ZF_SPI
   *DEL*:           00000EH   BYTE   INSEG    CODE           ?PR?SPI_MOSI?ZF_SPI
   *DEL*:           000004H   BYTE   UNIT     EDATA          ?ED?SPI_INIT?ZF_SPI
   *DEL*:           000051H   BYTE   INSEG    CODE           ?PR?CTIMER_COUNT_CLEAN?ZF_TIM
   *DEL*:           000054H   BYTE   INSEG    CODE           ?PR?UART_PUTCHAR?ZF_UART
   *DEL*:           00002DH   BYTE   INSEG    CODE           ?PR?UART_PUTBUFF?ZF_UART
   *DEL*:           00001EH   BYTE   INSEG    CODE           ?PR?UART_PUTSTR?ZF_UART
   *DEL*:           000004H   BYTE   UNIT     EDATA          ?ED?UART_PUTBUFF?ZF_UART
   *DEL*:           000002H   BYTE   UNIT     EDATA          ?ED?UART_PUTSTR?ZF_UART
   *DEL*:           00008BH   BYTE   INSEG    CODE           ?PR?LCD_SHOWUINT16?SEEKFREE_18TFT
   *DEL*:           000082H   BYTE   INSEG    CODE           ?PR?LCD_SHOWINT32_SIMSPI?SEEKFREE_18TFT
   *DEL*:           0000DDH   BYTE   INSEG    CODE           ?PR?LCD_SHOWINT16_SIMSPI?SEEKFREE_18TFT
   *DEL*:           000082H   BYTE   INSEG    CODE           ?PR?LCD_SHOWINT32?SEEKFREE_18TFT
   *DEL*:           0000DDH   BYTE   INSEG    CODE           ?PR?LCD_SHOWINT16?SEEKFREE_18TFT
   *DEL*:           00002BH   BYTE   INSEG    CODE           ?PR?LCD_CLEAR?SEEKFREE_18TFT
   *DEL*:           00004EH   BYTE   INSEG    CODE           ?PR?LCD_SHOWSTR?SEEKFREE_18TFT
   *DEL*:           00000AH   BYTE   INSEG    CODE           ?PR?LCD_WRITEINDEX?SEEKFREE_18TFT
   *DEL*:           00000AH   BYTE   INSEG    CODE           ?PR?LCD_WRITEDATA?SEEKFREE_18TFT
   *DEL*:           00009AH   BYTE   INSEG    CODE           ?PR?SHOWIMAGE?SEEKFREE_18TFT
   *DEL*:           000050H   BYTE   INSEG    CODE           ?PR?LCD_SET_REGION?SEEKFREE_18TFT
   *DEL*:           0001EEH   BYTE   INSEG    CODE           ?PR?LCD_INIT?SEEKFREE_18TFT
   *DEL*:           00007BH   BYTE   INSEG    CODE           ?PR?LCD_SHOWUINT8_SIMSPI?SEEKFREE_18TFT
   *DEL*:           00007BH   BYTE   INSEG    CODE           ?PR?LCD_SHOWUINT8?SEEKFREE_18TFT
   *DEL*:           0000B9H   BYTE   INSEG    CODE           ?PR?LCD_SHOWINT8_SIMSPI?SEEKFREE_18TFT
   *DEL*:           0000B9H   BYTE   INSEG    CODE           ?PR?LCD_SHOWINT8?SEEKFREE_18TFT
   *DEL*:           00001FH   BYTE   INSEG    CODE           ?PR?LCD_WRITEDATA_16BIT?SEEKFREE_18TFT
   *DEL*:           0000F8H   BYTE   INSEG    CODE           ?PR?LCD_SHOWFLOAT_SIMSPI?SEEKFREE_18TFT
   *DEL*:           000013H   BYTE   INSEG    CODE           ?PR?LCD_DRAWPOINT_SIMSPI?SEEKFREE_18TFT
   *DEL*:           0000F8H   BYTE   INSEG    CODE           ?PR?LCD_SHOWFLOAT?SEEKFREE_18TFT
   *DEL*:           000013H   BYTE   INSEG    CODE           ?PR?LCD_DRAWPOINT?SEEKFREE_18TFT
   *DEL*:           00008CH   BYTE   INSEG    CODE           ?PR?LCD_SHOWCHAR?SEEKFREE_18TFT
   *DEL*:           00008BH   BYTE   INSEG    CODE           ?PR?LCD_SHOWUINT16_SIMSPI?SEEKFREE_18TFT
   *DEL*:           000005H   BYTE   UNIT     EDATA          ?ED?LCD_SHOWINT8_SIMSPI?SEEKFREE_18TFT
   *DEL*:           000004H   BYTE   UNIT     EDATA          ?ED?LCD_SHOWUINT8_SIMSPI?SEEKFREE_18TFT
   *DEL*:           000008H   BYTE   UNIT     EDATA          ?ED?LCD_SHOWINT16_SIMSPI?SEEKFREE_18TFT
   *DEL*:           000006H   BYTE   UNIT     EDATA          ?ED?LCD_SHOWUINT16_SIMSPI?SEEKFREE_18TFT
   *DEL*:           000028H   BYTE   UNIT     EDATA          ?ED?LCD_SHOWINT32_SIMSPI?SEEKFREE_18TFT
   *DEL*:           00002BH   BYTE   UNIT     EDATA          ?ED?LCD_SHOWFLOAT_SIMSPI?SEEKFREE_18TFT
   *DEL*:           000002H   BYTE   UNIT     EDATA          ?ED?LCD_WRITEDATA_16BIT?SEEKFREE_18TFT
   *DEL*:           000004H   BYTE   UNIT     EDATA          ?ED?LCD_SET_REGION?SEEKFREE_18TFT
   *DEL*:           000004H   BYTE   UNIT     EDATA          ?ED?LCD_SHOWCHAR?SEEKFREE_18TFT
   *DEL*:           000006H   BYTE   UNIT     EDATA          ?ED?LCD_SHOWSTR?SEEKFREE_18TFT
   *DEL*:           000005H   BYTE   UNIT     EDATA          ?ED?LCD_SHOWINT8?SEEKFREE_18TFT
   *DEL*:           000004H   BYTE   UNIT     EDATA          ?ED?LCD_SHOWUINT8?SEEKFREE_18TFT
   *DEL*:           000008H   BYTE   UNIT     EDATA          ?ED?LCD_SHOWINT16?SEEKFREE_18TFT
   *DEL*:           000006H   BYTE   UNIT     EDATA          ?ED?LCD_SHOWUINT16?SEEKFREE_18TFT
   *DEL*:           000028H   BYTE   UNIT     EDATA          ?ED?LCD_SHOWINT32?SEEKFREE_18TFT
   *DEL*:           00002BH   BYTE   UNIT     EDATA          ?ED?LCD_SHOWFLOAT?SEEKFREE_18TFT
   *DEL*:           000008H   BYTE   UNIT     EDATA          ?ED?SHOWIMAGE?SEEKFREE_18TFT
   *DEL*:           000011H   BYTE   INSEG    CODE           ?PR?ENCODER_SELF4_CHECK?SEEKFREE_ABSOLUTE_ENCODER
   *DEL*:           000011H   BYTE   INSEG    CODE           ?PR?ENCODER_SELF5_CHECK?SEEKFREE_ABSOLUTE_ENCODER
   *DEL*:           00002FH   BYTE   INSEG    CODE           ?PR?ENCODER_SPI_R_REG_BYTE?SEEKFREE_ABSOLUTE_ENCODER
   *DEL*:           000005H   BYTE   INSEG    CODE           ?PR?ENCODER_DELAY_US?SEEKFREE_ABSOLUTE_ENCODER
   *DEL*:           000038H   BYTE   INSEG    CODE           ?PR?ENCODER_SPI_W_REG_BYTE?SEEKFREE_ABSOLUTE_ENCODER
   *DEL*:           00001CH   BYTE   INSEG    CODE           ?PR?SIMSPI_R_REG_BYTE?SEEKFREE_ABSOLUTE_ENCODER
   *DEL*:           00001AH   BYTE   INSEG    CODE           ?PR?SIMSPI_W_REG_BYTE?SEEKFREE_ABSOLUTE_ENCODER
L251 LINKER/LOCATER V4.66.93.0                                                        07/17/2022  02:20:12  PAGE 7


   *DEL*:           000029H   BYTE   INSEG    CODE           ?PR?ENCODER_INIT_SPI?SEEKFREE_ABSOLUTE_ENCODER
   *DEL*:           000004H   BYTE   INSEG    CODE           ?PR?SPI_WR_BYTE?SEEKFREE_ABSOLUTE_ENCODER
   *DEL*:           000024H   BYTE   INSEG    CODE           ?PR?SET_ZERO_POSITION_SIMSPI?SEEKFREE_ABSOLUTE_ENCODER
   *DEL*:           000023H   BYTE   INSEG    CODE           ?PR?ENCODER_ANGLE_SIMSPI?SEEKFREE_ABSOLUTE_ENCODER
   *DEL*:           00001CH   BYTE   INSEG    CODE           ?PR?SPI_R_REG_BYTE?SEEKFREE_ABSOLUTE_ENCODER
   *DEL*:           00001AH   BYTE   INSEG    CODE           ?PR?SPI_W_REG_BYTE?SEEKFREE_ABSOLUTE_ENCODER
   *DEL*:           00002FH   BYTE   INSEG    CODE           ?PR?ENCODER_SIMSPI_R_REG_BYTE?SEEKFREE_ABSOLUTE_ENCODER
   *DEL*:           000038H   BYTE   INSEG    CODE           ?PR?ENCODER_SIMSPI_W_REG_BYTE?SEEKFREE_ABSOLUTE_ENCODER
   *DEL*:           00000FH   BYTE   INSEG    CODE           ?PR?ENCODER_INIT_SIMSPI?SEEKFREE_ABSOLUTE_ENCODER
   *DEL*:           000024H   BYTE   INSEG    CODE           ?PR?SET_ZERO_POSITION_SPI?SEEKFREE_ABSOLUTE_ENCODER
   *DEL*:           00001FH   BYTE   INSEG    CODE           ?PR?SIMSPI_WR_BYTE?SEEKFREE_ABSOLUTE_ENCODER
   *DEL*:           000023H   BYTE   INSEG    CODE           ?PR?ENCODER_ANGLE_SPI?SEEKFREE_ABSOLUTE_ENCODER
   *DEL*:           000001H   BYTE   UNIT     EDATA          ?ED?ENCODER_SELF4_CHECK?SEEKFREE_ABSOLUTE_ENCODER
   *DEL*:           000001H   BYTE   UNIT     EDATA          ?ED?ENCODER_SELF5_CHECK?SEEKFREE_ABSOLUTE_ENCODER
   *DEL*:           00001FH   BYTE   INSEG    CODE           ?PR?ICM_SIMSPI_WR_BYTE?SEEKFREE_ICM20602
   *DEL*:           0001E7H   BYTE   INSEG    CODE           ?PR?ICM_GETEULERIANANGLES?SEEKFREE_ICM20602
   *DEL*:           000075H   BYTE   INSEG    CODE           ?PR?ICM20602_INIT_SIMIIC?SEEKFREE_ICM20602
   *DEL*:           000040H   BYTE   INSEG    CODE           ?PR?ICM_SIMSPI_R_REG_BYTES?SEEKFREE_ICM20602
   *DEL*:           00001CH   BYTE   INSEG    CODE           ?PR?ICM_SIMSPI_R_REG_BYTE?SEEKFREE_ICM20602
   *DEL*:           000013H   BYTE   INSEG    CODE           ?PR?ICM_SIMSPI_W_REG_BYTE?SEEKFREE_ICM20602
   *DEL*:           00009BH   BYTE   INSEG    CODE           ?PR?GYROOFFSET_INIT?SEEKFREE_ICM20602
   *DEL*:           000059H   BYTE   INSEG    CODE           ?PR?ICM20602_INIT_SIMSPI?SEEKFREE_ICM20602
   *DEL*:           00002BH   BYTE   INSEG    CODE           ?PR?ICM20602_SELF1_CHECK?SEEKFREE_ICM20602
   *DEL*:           000011H   BYTE   INSEG    CODE           ?PR?ICM20602_SELF4_CHECK?SEEKFREE_ICM20602
   *DEL*:           00006BH   BYTE   INSEG    CODE           ?PR?FAST_SQRT?SEEKFREE_ICM20602
   *DEL*:           000044H   BYTE   INSEG    CODE           ?PR?GET_ICM20602_GYRO_SIMIIC?SEEKFREE_ICM20602
   *DEL*:           000044H   BYTE   INSEG    CODE           ?PR?GET_ICM20602_ACCDATA_SIMIIC?SEEKFREE_ICM20602
   *DEL*:           00010BH   BYTE   INSEG    CODE           ?PR?ICM_GETVALUES?SEEKFREE_ICM20602
   *DEL*:           00039FH   BYTE   INSEG    CODE           ?PR?ICM_AHRSUPDATE?SEEKFREE_ICM20602
   *DEL*:           00003DH   BYTE   INSEG    CODE           ?PR?GET_ICM20602_GYRO_SIMSPI?SEEKFREE_ICM20602
   *DEL*:           00003DH   BYTE   INSEG    CODE           ?PR?GET_ICM20602_ACCDATA_SIMSPI?SEEKFREE_ICM20602
   *DEL*:           000006H   BYTE   UNIT     EDATA          ?ED?GET_ICM20602_ACCDATA_SIMIIC?SEEKFREE_ICM20602
   *DEL*:           000006H   BYTE   UNIT     EDATA          ?ED?GET_ICM20602_GYRO_SIMIIC?SEEKFREE_ICM20602
   *DEL*:           000003H   BYTE   UNIT     EDATA          ?ED?ICM_SIMSPI_R_REG_BYTES?SEEKFREE_ICM20602
   *DEL*:           000001H   BYTE   UNIT     EDATA          ?ED?ICM20602_SELF4_CHECK?SEEKFREE_ICM20602
   *DEL*:           000001H   BYTE   UNIT     EDATA          ?ED?ICM20602_INIT_SIMSPI?SEEKFREE_ICM20602
   *DEL*:           000006H   BYTE   UNIT     EDATA          ?ED?GET_ICM20602_ACCDATA_SIMSPI?SEEKFREE_ICM20602
   *DEL*:           000006H   BYTE   UNIT     EDATA          ?ED?GET_ICM20602_GYRO_SIMSPI?SEEKFREE_ICM20602
   *DEL*:           000008H   BYTE   UNIT     EDATA          ?ED?FAST_SQRT?SEEKFREE_ICM20602
   *DEL*:           00004CH   BYTE   UNIT     EDATA          ?ED?ICM_AHRSUPDATE?SEEKFREE_ICM20602
   *DEL*:           00000CH   BYTE   UNIT     EDATA          ?ED?ICM_GETEULERIANANGLES?SEEKFREE_ICM20602
   *DEL*:           000066H   BYTE   INSEG    CODE           ?PR?SIMIIC_READ_REGS?SEEKFREE_IIC
   *DEL*:           000001H   BYTE   INSEG    CODE           ?PR?SIMIIC_INIT?SEEKFREE_IIC
   *DEL*:           000005H   BYTE   UNIT     EDATA          ?ED?SIMIIC_READ_REGS?SEEKFREE_IIC
   *DEL*:           00007BH   BYTE   INSEG    CODE           ?PR?IPS114_SHOWUINT8_SIMSPI?SEEKFREE_IPS114_SPI
   *DEL*:           000077H   BYTE   INSEG    CODE           ?PR?IPS114_SHOWUINT8?SEEKFREE_IPS114_SPI
   *DEL*:           0000B9H   BYTE   INSEG    CODE           ?PR?IPS114_SHOWINT8_SIMSPI?SEEKFREE_IPS114_SPI
   *DEL*:           0000B5H   BYTE   INSEG    CODE           ?PR?IPS114_SHOWINT8?SEEKFREE_IPS114_SPI
   *DEL*:           00001FH   BYTE   INSEG    CODE           ?PR?IPS114_WRITEDATA_16BIT?SEEKFREE_IPS114_SPI
   *DEL*:           0000F8H   BYTE   INSEG    CODE           ?PR?IPS114_SHOWFLOAT_SIMSPI?SEEKFREE_IPS114_SPI
   *DEL*:           000013H   BYTE   INSEG    CODE           ?PR?IPS114_DRAWPOINT_SIMSPI?SEEKFREE_IPS114_SPI
   *DEL*:           0000F8H   BYTE   INSEG    CODE           ?PR?IPS114_SHOWFLOAT?SEEKFREE_IPS114_SPI
   *DEL*:           000013H   BYTE   INSEG    CODE           ?PR?IPS114_DRAWPOINT?SEEKFREE_IPS114_SPI
   *DEL*:           00008EH   BYTE   INSEG    CODE           ?PR?IPS114_SHOWCHAR_SIMSPI?SEEKFREE_IPS114_SPI
   *DEL*:           00008EH   BYTE   INSEG    CODE           ?PR?IPS114_SHOWCHAR?SEEKFREE_IPS114_SPI
   *DEL*:           00008BH   BYTE   INSEG    CODE           ?PR?IPS114_SHOWUINT16_SIMSPI?SEEKFREE_IPS114_SPI
   *DEL*:           00008BH   BYTE   INSEG    CODE           ?PR?IPS114_SHOWUINT16?SEEKFREE_IPS114_SPI
   *DEL*:           000082H   BYTE   INSEG    CODE           ?PR?IPS114_SHOWINT32_SIMSPI?SEEKFREE_IPS114_SPI
   *DEL*:           0000DDH   BYTE   INSEG    CODE           ?PR?IPS114_SHOWINT16_SIMSPI?SEEKFREE_IPS114_SPI
   *DEL*:           000082H   BYTE   INSEG    CODE           ?PR?IPS114_SHOWINT32?SEEKFREE_IPS114_SPI
   *DEL*:           0000D9H   BYTE   INSEG    CODE           ?PR?IPS114_SHOWINT16?SEEKFREE_IPS114_SPI
   *DEL*:           00003CH   BYTE   INSEG    CODE           ?PR?IPS114_CLEAR_SIMSPI?SEEKFREE_IPS114_SPI
   *DEL*:           00003CH   BYTE   INSEG    CODE           ?PR?IPS114_CLEAR?SEEKFREE_IPS114_SPI
   *DEL*:           00002CH   BYTE   INSEG    CODE           ?PR?IPS114_WRITEDATAI_16BIT_SIMSPI?SEEKFREE_IPS114_SPI
   *DEL*:           00004EH   BYTE   INSEG    CODE           ?PR?IPS114_SHOWSTR_SIMSPI?SEEKFREE_IPS114_SPI
L251 LINKER/LOCATER V4.66.93.0                                                        07/17/2022  02:20:12  PAGE 8


   *DEL*:           00004EH   BYTE   INSEG    CODE           ?PR?IPS114_SHOWSTR?SEEKFREE_IPS114_SPI
   *DEL*:           000029H   BYTE   INSEG    CODE           ?PR?IPS114_WRITEINDEX_SIMSPI?SEEKFREE_IPS114_SPI
   *DEL*:           000029H   BYTE   INSEG    CODE           ?PR?IPS114_WRITEDATA_SIMSPI?SEEKFREE_IPS114_SPI
   *DEL*:           00000AH   BYTE   INSEG    CODE           ?PR?IPS114_WRITEINDEX?SEEKFREE_IPS114_SPI
   *DEL*:           00000AH   BYTE   INSEG    CODE           ?PR?IPS114_WRITEDATA?SEEKFREE_IPS114_SPI
   *DEL*:           000044H   BYTE   INSEG    CODE           ?PR?IPS114_SET_REGION_SIMSPI?SEEKFREE_IPS114_SPI
   *DEL*:           00014FH   BYTE   INSEG    CODE           ?PR?IPS114_INIT_SIMSPI?SEEKFREE_IPS114_SPI
   *DEL*:           000048H   BYTE   INSEG    CODE           ?PR?IPS114_SET_REGION?SEEKFREE_IPS114_SPI
   *DEL*:           00016DH   BYTE   INSEG    CODE           ?PR?IPS114_INIT?SEEKFREE_IPS114_SPI
   *DEL*:           000004H   BYTE   UNIT     EDATA          ?ED?IPS114_SET_REGION_SIMSPI?SEEKFREE_IPS114_SPI
   *DEL*:           000002H   BYTE   UNIT     EDATA          ?ED?IPS114_CLEAR_SIMSPI?SEEKFREE_IPS114_SPI
   *DEL*:           000004H   BYTE   UNIT     EDATA          ?ED?IPS114_SHOWCHAR_SIMSPI?SEEKFREE_IPS114_SPI
   *DEL*:           000006H   BYTE   UNIT     EDATA          ?ED?IPS114_SHOWSTR_SIMSPI?SEEKFREE_IPS114_SPI
   *DEL*:           000005H   BYTE   UNIT     EDATA          ?ED?IPS114_SHOWINT8_SIMSPI?SEEKFREE_IPS114_SPI
   *DEL*:           000004H   BYTE   UNIT     EDATA          ?ED?IPS114_SHOWUINT8_SIMSPI?SEEKFREE_IPS114_SPI
   *DEL*:           000008H   BYTE   UNIT     EDATA          ?ED?IPS114_SHOWINT16_SIMSPI?SEEKFREE_IPS114_SPI
   *DEL*:           000006H   BYTE   UNIT     EDATA          ?ED?IPS114_SHOWUINT16_SIMSPI?SEEKFREE_IPS114_SPI
   *DEL*:           000028H   BYTE   UNIT     EDATA          ?ED?IPS114_SHOWINT32_SIMSPI?SEEKFREE_IPS114_SPI
   *DEL*:           00002BH   BYTE   UNIT     EDATA          ?ED?IPS114_SHOWFLOAT_SIMSPI?SEEKFREE_IPS114_SPI
   *DEL*:           000002H   BYTE   UNIT     EDATA          ?ED?IPS114_WRITEDATA_16BIT?SEEKFREE_IPS114_SPI
   *DEL*:           000004H   BYTE   UNIT     EDATA          ?ED?IPS114_SET_REGION?SEEKFREE_IPS114_SPI
   *DEL*:           000002H   BYTE   UNIT     EDATA          ?ED?IPS114_CLEAR?SEEKFREE_IPS114_SPI
   *DEL*:           000004H   BYTE   UNIT     EDATA          ?ED?IPS114_SHOWCHAR?SEEKFREE_IPS114_SPI
   *DEL*:           000006H   BYTE   UNIT     EDATA          ?ED?IPS114_SHOWSTR?SEEKFREE_IPS114_SPI
   *DEL*:           000005H   BYTE   UNIT     EDATA          ?ED?IPS114_SHOWINT8?SEEKFREE_IPS114_SPI
   *DEL*:           000004H   BYTE   UNIT     EDATA          ?ED?IPS114_SHOWUINT8?SEEKFREE_IPS114_SPI
   *DEL*:           000008H   BYTE   UNIT     EDATA          ?ED?IPS114_SHOWINT16?SEEKFREE_IPS114_SPI
   *DEL*:           000006H   BYTE   UNIT     EDATA          ?ED?IPS114_SHOWUINT16?SEEKFREE_IPS114_SPI
   *DEL*:           000028H   BYTE   UNIT     EDATA          ?ED?IPS114_SHOWINT32?SEEKFREE_IPS114_SPI
   *DEL*:           00002BH   BYTE   UNIT     EDATA          ?ED?IPS114_SHOWFLOAT?SEEKFREE_IPS114_SPI
   *DEL*:           000055H   BYTE   INSEG    CODE           ?PR?MPU6050_INIT?SEEKFREE_MPU6050
   *DEL*:           00002CH   BYTE   INSEG    CODE           ?PR?MPU6050_SELF1_CHECK?SEEKFREE_MPU6050
   *DEL*:           000044H   BYTE   INSEG    CODE           ?PR?MPU6050_GET_GYRO?SEEKFREE_MPU6050
   *DEL*:           000044H   BYTE   INSEG    CODE           ?PR?MPU6050_GET_ACCDATA?SEEKFREE_MPU6050
   *DEL*:           000006H   BYTE   UNIT     EDATA          ?ED?MPU6050_GET_ACCDATA?SEEKFREE_MPU6050
   *DEL*:           000006H   BYTE   UNIT     EDATA          ?ED?MPU6050_GET_GYRO?SEEKFREE_MPU6050
   *DEL*:           000033H   BYTE   INSEG    CODE           ?PR?OLED_PUTPIXEL?SEEKFREE_OLED
   *DEL*:           000032H   BYTE   INSEG    CODE           ?PR?OLED_HEXASCII_SPI?SEEKFREE_OLED
   *DEL*:           000023H   BYTE   INSEG    CODE           ?PR?OLED_SET_POS?SEEKFREE_OLED
   *DEL*:           000325H   BYTE   INSEG    CODE           ?PR?OLED_DIS_BMP_SPI?SEEKFREE_OLED
   *DEL*:           0000F8H   BYTE   INSEG    CODE           ?PR?OLED_PRINTF_FLOAT?SEEKFREE_OLED
   *DEL*:           0000E8H   BYTE   INSEG    CODE           ?PR?OLED_P8X16STR_SPI?SEEKFREE_OLED
   *DEL*:           00002AH   BYTE   INSEG    CODE           ?PR?OLED_CLRPIXEL_SPI?SEEKFREE_OLED
   *DEL*:           000029H   BYTE   INSEG    CODE           ?PR?OLED_WRCMD?SEEKFREE_OLED
   *DEL*:           000090H   BYTE   INSEG    CODE           ?PR?OLED_PRINT_CHINESE_SPI?SEEKFREE_OLED
   *DEL*:           000029H   BYTE   INSEG    CODE           ?PR?OLED_WRDAT?SEEKFREE_OLED
   *DEL*:           000033H   BYTE   INSEG    CODE           ?PR?OLED_FILL?SEEKFREE_OLED
   *DEL*:           000082H   BYTE   INSEG    CODE           ?PR?OLED_PRINTF_INT32?SEEKFREE_OLED
   *DEL*:           00001DH   BYTE   INSEG    CODE           ?PR?OLED_UINT16?SEEKFREE_OLED
   *DEL*:           000031H   BYTE   INSEG    CODE           ?PR?OLED_PUTPIXEL_SPI?SEEKFREE_OLED
   *DEL*:           000021H   BYTE   INSEG    CODE           ?PR?OLED_SET_POS_SPI?SEEKFREE_OLED
   *DEL*:           0000A9H   BYTE   INSEG    CODE           ?PR?OLED_P6X8STR?SEEKFREE_OLED
   *DEL*:           00004BH   BYTE   INSEG    CODE           ?PR?OLED_INT16?SEEKFREE_OLED
   *DEL*:           0000A3H   BYTE   INSEG    CODE           ?PR?OLED_INIT?SEEKFREE_OLED
   *DEL*:           0000F8H   BYTE   INSEG    CODE           ?PR?OLED_PRINTF_FLOAT_SPI?SEEKFREE_OLED
   *DEL*:           00000AH   BYTE   INSEG    CODE           ?PR?OLED_WRCMD_SPI?SEEKFREE_OLED
   *DEL*:           00000AH   BYTE   INSEG    CODE           ?PR?OLED_WRDAT_SPI?SEEKFREE_OLED
   *DEL*:           000032H   BYTE   INSEG    CODE           ?PR?OLED_HEXASCII?SEEKFREE_OLED
   *DEL*:           000033H   BYTE   INSEG    CODE           ?PR?OLED_FILL_SPI?SEEKFREE_OLED
   *DEL*:           000082H   BYTE   INSEG    CODE           ?PR?OLED_PRINTF_INT32_SPI?SEEKFREE_OLED
   *DEL*:           00001DH   BYTE   INSEG    CODE           ?PR?OLED_UINT16_SPI?SEEKFREE_OLED
   *DEL*:           0000A9H   BYTE   INSEG    CODE           ?PR?OLED_P6X8STR_SPI?SEEKFREE_OLED
   *DEL*:           00004BH   BYTE   INSEG    CODE           ?PR?OLED_INT16_SPI?SEEKFREE_OLED
   *DEL*:           00033BH   BYTE   INSEG    CODE           ?PR?OLED_DIS_BMP?SEEKFREE_OLED
   *DEL*:           0000BFH   BYTE   INSEG    CODE           ?PR?OLED_INIT_SPI?SEEKFREE_OLED
L251 LINKER/LOCATER V4.66.93.0                                                        07/17/2022  02:20:12  PAGE 9


   *DEL*:           0000E8H   BYTE   INSEG    CODE           ?PR?OLED_P8X16STR?SEEKFREE_OLED
   *DEL*:           00002CH   BYTE   INSEG    CODE           ?PR?OLED_CLRPIXEL?SEEKFREE_OLED
   *DEL*:           000090H   BYTE   INSEG    CODE           ?PR?OLED_PRINT_CHINESE?SEEKFREE_OLED
   *DEL*:           000005H   BYTE   UNIT     EDATA          ?ED?OLED_P6X8STR?SEEKFREE_OLED
   *DEL*:           000005H   BYTE   UNIT     EDATA          ?ED?OLED_P8X16STR?SEEKFREE_OLED
   *DEL*:           000007H   BYTE   UNIT     EDATA          ?ED?OLED_UINT16?SEEKFREE_OLED
   *DEL*:           000007H   BYTE   UNIT     EDATA          ?ED?OLED_INT16?SEEKFREE_OLED
   *DEL*:           000028H   BYTE   UNIT     EDATA          ?ED?OLED_PRINTF_INT32?SEEKFREE_OLED
   *DEL*:           00002BH   BYTE   UNIT     EDATA          ?ED?OLED_PRINTF_FLOAT?SEEKFREE_OLED
   *DEL*:           00000CH   BYTE   UNIT     EDATA          ?ED?OLED_DIS_BMP?SEEKFREE_OLED
   *DEL*:           00000AH   BYTE   UNIT     EDATA          ?ED?OLED_PRINT_CHINESE?SEEKFREE_OLED
   *DEL*:           000005H   BYTE   UNIT     EDATA          ?ED?OLED_P6X8STR_SPI?SEEKFREE_OLED
   *DEL*:           000005H   BYTE   UNIT     EDATA          ?ED?OLED_P8X16STR_SPI?SEEKFREE_OLED
   *DEL*:           000007H   BYTE   UNIT     EDATA          ?ED?OLED_UINT16_SPI?SEEKFREE_OLED
   *DEL*:           000007H   BYTE   UNIT     EDATA          ?ED?OLED_INT16_SPI?SEEKFREE_OLED
   *DEL*:           000028H   BYTE   UNIT     EDATA          ?ED?OLED_PRINTF_INT32_SPI?SEEKFREE_OLED
   *DEL*:           00002BH   BYTE   UNIT     EDATA          ?ED?OLED_PRINTF_FLOAT_SPI?SEEKFREE_OLED
   *DEL*:           00000CH   BYTE   UNIT     EDATA          ?ED?OLED_DIS_BMP_SPI?SEEKFREE_OLED
   *DEL*:           00000AH   BYTE   UNIT     EDATA          ?ED?OLED_PRINT_CHINESE_SPI?SEEKFREE_OLED
   *DEL*:           000070H   BYTE   INSEG    CODE           ?PR?CCD_SEND_DATA?SEEKFREE_TSL1401
   *DEL*:           000016H   BYTE   INSEG    CODE           ?PR?CCD_INIT?SEEKFREE_TSL1401
   *DEL*:           000035H   BYTE   INSEG    CODE           ?PR?CCD_COLLECT?SEEKFREE_TSL1401
   *DEL*:           000003H   BYTE   UNIT     EDATA          ?ED?CCD_SEND_DATA?SEEKFREE_TSL1401
   *DEL*:           00003AH   BYTE   INSEG    CODE           ?PR?CRC_CHECK?SEEKFREE_VIRSCO
   *DEL*:           000069H   BYTE   INSEG    CODE           ?PR?DATA_CONVERSION?SEEKFREE_VIRSCO
   *DEL*:           000004H   BYTE   UNIT     EDATA          ?ED?DATA_CONVERSION?SEEKFREE_VIRSCO
   *DEL*:           000003H   BYTE   INSEG    CODE           ?PR?WIRELESS_UART_CALLBACK?SEEKFREE_WIRELESS
   *DEL*:           00005DH   BYTE   INSEG    CODE           ?PR?SEEKFREE_WIRELESS_SEND_BUFF?SEEKFREE_WIRELESS
   *DEL*:           000027H   BYTE   INSEG    CODE           ?PR?SEEKFREE_WIRELESS_INIT?SEEKFREE_WIRELESS
   *DEL*:           000002H   BYTE   UNIT     EDATA          ?ED?SEEKFREE_WIRELESS_SEND_BUFF?SEEKFREE_WIRELESS
   *DEL*:           00005EH   BYTE   INSEG    CODE           ?PR?AT24C02_READ_BYTES?SEEKFREE_AT24C02
   *DEL*:           00005BH   BYTE   INSEG    CODE           ?PR?AT24C02_WRITE_BYTES?SEEKFREE_AT24C02
   *DEL*:           000002H   BYTE   UNIT     EDATA          ?ED?AT24C02_WRITE_BYTES?SEEKFREE_AT24C02
   *DEL*:           000002H   BYTE   UNIT     EDATA          ?ED?AT24C02_READ_BYTES?SEEKFREE_AT24C02
   *DEL*:           000051H   BYTE   INSEG    CODE           ?PR?BLUETOOTH_CH9141_GET_STATUS?SEEKFREE_BLUETOOTH_CH9141
   *DEL*:           00005CH   BYTE   INSEG    CODE           ?PR?BLUETOOTH_CH9141_SEND_AT_COMMAND_PARAMETER?SEEKFREE_BL
                                                             -UETOOTH_CH9141
   *DEL*:           000021H   BYTE   INSEG    CODE           ?PR?BLUETOOTH_CH9141_SET_NAME?SEEKFREE_BLUETOOTH_CH9141
   *DEL*:           00003CH   BYTE   INSEG    CODE           ?PR?BLUETOOTH_CH9141_UART_CALLBACK?SEEKFREE_BLUETOOTH_CH91
                                                             -41
   *DEL*:           000019H   BYTE   INSEG    CODE           ?PR?BLUETOOTH_CH9141_SET_MODE?SEEKFREE_BLUETOOTH_CH9141
   *DEL*:           00002FH   BYTE   INSEG    CODE           ?PR?BLUETOOTH_CH9141_CHECK_RESPONSE?SEEKFREE_BLUETOOTH_CH9
                                                             -141
   *DEL*:           000018H   BYTE   INSEG    CODE           ?PR?BLUETOOTH_CH9141_ENTER_AT_MODE?SEEKFREE_BLUETOOTH_CH91
                                                             -41
   *DEL*:           000047H   BYTE   INSEG    CODE           ?PR?BLUETOOTH_CH9141_GET_RSSI?SEEKFREE_BLUETOOTH_CH9141
   *DEL*:           00000FH   BYTE   INSEG    CODE           ?PR?BLUETOOTH_CH9141_CONNECT?SEEKFREE_BLUETOOTH_CH9141
   *DEL*:           000017H   BYTE   INSEG    CODE           ?PR?BLUETOOTH_CH9141_EXIT_AT_MODE?SEEKFREE_BLUETOOTH_CH914
                                                             -1
   *DEL*:           00001FH   BYTE   INSEG    CODE           ?PR?BLUETOOTH_CH9141_GET_MAC_ADDRESS?SEEKFREE_BLUETOOTH_CH
                                                             -9141
   *DEL*:           000025H   BYTE   INSEG    CODE           ?PR?BLUETOOTH_CH9141_RESET?SEEKFREE_BLUETOOTH_CH9141
   *DEL*:           00003FH   BYTE   INSEG    CODE           ?PR?BLUETOOTH_CH9141_SET_PASSWORD?SEEKFREE_BLUETOOTH_CH914
                                                             -1
   *DEL*:           000027H   BYTE   INSEG    CODE           ?PR?BLUETOOTH_CH9141_SEND_AT_COMMAND?SEEKFREE_BLUETOOTH_CH
                                                             -9141
   *DEL*:           000019H   BYTE   INSEG    CODE           ?PR?BLUETOOTH_CH9141_SET_TX_POWER?SEEKFREE_BLUETOOTH_CH914
                                                             -1
   *DEL*:           000032H   BYTE   INSEG    CODE           ?PR?BLUETOOTH_CH9141_SEND_BUFF?SEEKFREE_BLUETOOTH_CH9141
   *DEL*:           0000BDH   BYTE   INSEG    CODE           ?PR?BLUETOOTH_CH9141_INIT?SEEKFREE_BLUETOOTH_CH9141
   *DEL*:           00000FH   BYTE   INSEG    CODE           ?PR?BLUETOOTH_CH9141_DEFAULT_CONNECT?SEEKFREE_BLUETOOTH_CH
                                                             -9141
   *DEL*:           000004H   BYTE   UNIT     EDATA          ?ED?BLUETOOTH_CH9141_SEND_AT_COMMAND_PARAMETER?SEEKFREE_BL
                                                             -UETOOTH_CH9141
   *DEL*:           000001H   BYTE   UNIT     EDATA          ?ED?BLUETOOTH_CH9141_SET_TX_POWER?SEEKFREE_BLUETOOTH_CH914
L251 LINKER/LOCATER V4.66.93.0                                                        07/17/2022  02:20:12  PAGE 10


                                                             -1
   *DEL*:           000001H   BYTE   UNIT     EDATA          ?ED?BLUETOOTH_CH9141_SET_MODE?SEEKFREE_BLUETOOTH_CH9141
   *DEL*:           000001H   BYTE   UNIT     EDATA          ?ED?BLUETOOTH_CH9141_GET_STATUS?SEEKFREE_BLUETOOTH_CH9141
   *DEL*:           000004H   BYTE   UNIT     EDATA          ?ED?BLUETOOTH_CH9141_SEND_BUFF?SEEKFREE_BLUETOOTH_CH9141
   *DEL*:           000004H   BYTE   UNIT     EDATA          ?ED?BLUETOOTH_CH9141_INIT?SEEKFREE_BLUETOOTH_CH9141
   *DEL*:           000113H   BYTE   INSEG    CODE           ?PR?FIFO_READ_BUFFER?ZF_FIFO
   *DEL*:           000042H   BYTE   INSEG    CODE           ?PR?FIFO_HEAD_OFFSET?ZF_FIFO
   *DEL*:           000025H   BYTE   INSEG    CODE           ?PR?FIFO_CLEAR?ZF_FIFO
   *DEL*:           0000E0H   BYTE   INSEG    CODE           ?PR?FIFO_WRITE_BUFFER?ZF_FIFO
   *DEL*:           000046H   BYTE   INSEG    CODE           ?PR?FIFO_END_OFFSET?ZF_FIFO
   *DEL*:           000015H   BYTE   INSEG    CODE           ?PR?FIFO_USED?ZF_FIFO
   *DEL*:           000043H   BYTE   INSEG    CODE           ?PR?FIFO_INIT?ZF_FIFO
   *DEL*:           000004H   BYTE   UNIT     EDATA          ?ED?FIFO_INIT?ZF_FIFO
   *DEL*:           00000CH   BYTE   UNIT     EDATA          ?ED?FIFO_WRITE_BUFFER?ZF_FIFO
   *DEL*:           00000FH   BYTE   UNIT     EDATA          ?ED?FIFO_READ_BUFFER?ZF_FIFO
   *DEL*:           000068H   BYTE   INSEG    CODE           ?PR?ERR_GET_B?ISR
   *DEL*:           000058H   BYTE   INSEG    CODE           ?PR?SEND_MESSAGE?ISR
   *DEL*:           00003BH   BYTE   INSEG    CODE           ?PR?ROUND_RUN?ISR
   *DEL*:           000022H   BYTE   INSEG    CODE           ?PR?SSS?ISR
   *DEL*:           00000AH   BYTE   UNIT     EDATA          ?ED?SSS?ISR
   *DEL*:           00061CH   BYTE   INSEG    CODE           ?PR?FUZZYCTRL?FUZZY_PID
   *DEL*:           00054DH   BYTE   INSEG    CODE           ?PR?FUZZY_SP?FUZZY_PID
   *DEL*:           000019H   BYTE   INSEG    CODE           ?PR?FUZZY_UPDATE?FUZZY_PID
   *DEL*:           0000B6H   BYTE   UNIT     EDATA          ?ED?FUZZY_SP?FUZZY_PID
   *DEL*:           000038H   BYTE   UNIT     EDATA          ?ED?FUZZYCTRL?FUZZY_PID
   *DEL*:           000004H   BYTE   UNIT     EDATA          ?ED?FUZZY_UPDATE?FUZZY_PID
   *DEL*:           000040H   BYTE   INSEG    CODE           ?PR?PID_DUOJI_ROUND?PID
   *DEL*:           000036H   BYTE   INSEG    CODE           ?PR?PID_DUOJI_CROSS?PID
   *DEL*:           000040H   BYTE   INSEG    CODE           ?PR?PID_DUOJI_FORK?PID
   *DEL*:           00000EH   BYTE   INSEG    CODE           ?PR?ABS_INT?PID
   *DEL*:           000009H   BYTE   INSEG    CODE           ?PR?ANO_DT_SEND_DATA?ANO_DT
   *DEL*:           0000B1H   BYTE   INSEG    CODE           ?PR?ANO_DT_SENDTOUSER?ANO_DT
   *DEL*:           000008H   BYTE   UNIT     EDATA          ?ED?ANO_DT_SENDTOUSER?ANO_DT
   *DEL*:           000045H   BYTE   INSEG    CODE           ?PR?ATAN2?_?ATAN2
   *DEL*:           000037H   BYTE   INSEG    CODE           ?PR?STRNCMP?_?STRNCMP
   *DEL*:           00000EH   BYTE   INSEG    CODE           ?PR?STRLEN?_?STRLEN
   *DEL*:           000025H   BYTE   INSEG    CODE           ?PR?MEMCPY?_?MEMCPY



OVERLAY MAP OF MODULE:   .\Out_File\SEEKFREE (board)


FUNCTION/MODULE                               EDATA_GROUP
--> CALLED FUNCTION/MODULE                    START  STOP
=========================================================
UART1_Isr/isr                                 ----- -----

*** NEW ROOT ********************************

UART2_Isr/isr                                 ----- -----

*** NEW ROOT ********************************

UART3_Isr/isr                                 ----- -----
  +--> Split_Ultrasonic_callback/isr

Split_Ultrasonic_callback/isr                 ----- -----

*** NEW ROOT ********************************

UART4_Isr/isr                                 ----- -----
  +--> Star_handle/isr

Star_handle/isr                               ----- -----
L251 LINKER/LOCATER V4.66.93.0                                                        07/17/2022  02:20:12  PAGE 11



*** NEW ROOT ********************************

INT0_Isr/isr                                  ----- -----

*** NEW ROOT ********************************

INT1_Isr/isr                                  ----- -----

*** NEW ROOT ********************************

INT2_Isr/isr                                  ----- -----

*** NEW ROOT ********************************

INT3_Isr/isr                                  ----- -----

*** NEW ROOT ********************************

INT4_Isr/isr                                  ----- -----

*** NEW ROOT ********************************

TM0_Isr/isr                                   ----- -----

*** NEW ROOT ********************************

TM1_Isr/isr                                   ----- -----

*** NEW ROOT ********************************

TM2_Isr/isr                                   ----- -----
  +--> Turn_control/isr

Turn_control/isr                              ----- -----
  +--> Date_analyse/isr
  +--> shibie/isr
  +--> Control/isr
  +--> pwm_duty/zf_pwm

Date_analyse/isr                              ----- -----
  +--> Read_ADC/isr
  +--> FCASTI/DFPMU_SP
  +--> FPDIV/DFPMU_SP
  +--> FPCMP/DFPMU_SP
  +--> FPMUL/DFPMU_SP
  +--> CASTF/DFPMU_SP

Read_ADC/isr                                  ----- -----
  +--> adc_once/zf_adc

adc_once/zf_adc                               ----- -----

FCASTI/DFPMU_SP                               ----- -----

FPDIV/DFPMU_SP                                ----- -----

FPCMP/DFPMU_SP                                ----- -----

FPMUL/DFPMU_SP                                ----- -----

CASTF/DFPMU_SP                                ----- -----

shibie/isr                                    ----- -----
  +--> FCASTI/DFPMU_SP
L251 LINKER/LOCATER V4.66.93.0                                                        07/17/2022  02:20:12  PAGE 12


  +--> FPMUL/DFPMU_SP
  +--> CASTF/DFPMU_SP

Control/isr                                   ----- -----
  +--> Normal_handle/isr
  +--> Fork_Rhandle/isr
  +--> Fork_Lhandle/isr
  +--> Round_handle/isr
  +--> Cross_handle/isr
  +--> Descent_handle/isr

Normal_handle/isr                             ----- -----
  +--> FPSUB/DFPMU_SP
  +--> err_get_f/isr
  +--> FPADD/DFPMU_SP
  +--> pid_duoji_normal_sqrt/pid

FPSUB/DFPMU_SP                                ----- -----

err_get_f/isr                                 ----- -----
  +--> FCASTI/DFPMU_SP
  +--> FPMUL/DFPMU_SP
  +--> FPADD/DFPMU_SP
  +--> FPDIV/DFPMU_SP

FPADD/DFPMU_SP                                ----- -----

pid_duoji_normal_sqrt/pid                     ----- -----
  +--> FPSUB/DFPMU_SP
  +--> FCASTI/DFPMU_SP
  +--> FPMUL/DFPMU_SP
  +--> FPADD/DFPMU_SP
  +--> CASTF/DFPMU_SP

Fork_Rhandle/isr                              ----- -----
  +--> FCASTI/DFPMU_SP
  +--> SQRT/DFPMU_SP
  +--> FPMUL/DFPMU_SP
  +--> FPDIV/DFPMU_SP
  +--> FPSUB/DFPMU_SP
  +--> CASTF/DFPMU_SP
  +--> err_get/isr
  +--> pid_duoji_normal_sqrt/pid
  +--> Normal_handle/isr

SQRT/DFPMU_SP                                 ----- -----

err_get/isr                                   ----- -----
  +--> FCASTI/DFPMU_SP
  +--> SQRT/DFPMU_SP
  +--> FPSUB/DFPMU_SP
  +--> FPDIV/DFPMU_SP

Fork_Lhandle/isr                              ----- -----
  +--> FCASTI/DFPMU_SP
  +--> SQRT/DFPMU_SP
  +--> FCHS/DFPMU_SP
  +--> FPMUL/DFPMU_SP
  +--> FPDIV/DFPMU_SP
  +--> FPSUB/DFPMU_SP
  +--> CASTF/DFPMU_SP
  +--> Normal_handle/isr

FCHS/DFPMU_SP                                 ----- -----

L251 LINKER/LOCATER V4.66.93.0                                                        07/17/2022  02:20:12  PAGE 13


Round_handle/isr                              ----- -----
  +--> FPCMP/DFPMU_SP
  +--> FCHS/DFPMU_SP
  +--> Normal_handle/isr
  +--> err_get/isr
  +--> FPMUL/DFPMU_SP
  +--> FPADD/DFPMU_SP
  +--> pid_duoji_normal_sqrt/pid
  +--> FCASTI/DFPMU_SP
  +--> SQRT/DFPMU_SP
  +--> FPSUB/DFPMU_SP
  +--> FPDIV/DFPMU_SP
  +--> CASTF/DFPMU_SP
  +--> err_get_f/isr
  +--> abs_float/pid
  +--> err_get_cross/isr

abs_float/pid                                 ----- -----
  +--> FPCMP/DFPMU_SP
  +--> FCHS/DFPMU_SP

err_get_cross/isr                             ----- -----
  +--> FCASTI/DFPMU_SP
  +--> SQRT/DFPMU_SP
  +--> FPSUB/DFPMU_SP
  +--> FPDIV/DFPMU_SP

Cross_handle/isr                              ----- -----
  +--> err_get_cross/isr
  +--> FPMUL/DFPMU_SP
  +--> FPSUB/DFPMU_SP
  +--> CASTF/DFPMU_SP
  +--> err_in_cross/isr
  +--> FCASTI/DFPMU_SP

err_in_cross/isr                              ----- -----
  +--> FCASTI/DFPMU_SP
  +--> FPDIV/DFPMU_SP

Descent_handle/isr                            ----- -----
  +--> Normal_handle/isr

pwm_duty/zf_pwm                               ----- -----
  +--> FCASTL/DFPMU_SP
  +--> FPDIV/DFPMU_SP
  +--> FPMUL/DFPMU_SP
  +--> CASTF/DFPMU_SP

FCASTL/DFPMU_SP                               ----- -----

*** NEW ROOT ********************************

TM3_Isr/isr                                   ----- -----

*** NEW ROOT ********************************

TM4_Isr/isr                                   ----- -----
  +--> ctimer_count_read/zf_tim
  +--> FCASTI/DFPMU_SP
  +--> FPDIV/DFPMU_SP
  +--> FPMUL/DFPMU_SP
  +--> FPADD/DFPMU_SP
  +--> FPCMP/DFPMU_SP
  +--> CASTF/DFPMU_SP
  +--> FPSUB/DFPMU_SP
L251 LINKER/LOCATER V4.66.93.0                                                        07/17/2022  02:20:12  PAGE 14


  +--> Incremental_PI_L/pid
  +--> Incremental_PI_R/pid
  +--> pwm_duty/zf_pwm

ctimer_count_read/zf_tim                      ----- -----

Incremental_PI_L/pid                          ----- -----
  +--> FCASTI/DFPMU_SP
  +--> FPMUL/DFPMU_SP
  +--> FPADD/DFPMU_SP
  +--> CASTF/DFPMU_SP

Incremental_PI_R/pid                          ----- -----
  +--> FCASTI/DFPMU_SP
  +--> FPMUL/DFPMU_SP
  +--> FPADD/DFPMU_SP
  +--> CASTF/DFPMU_SP

*** NEW ROOT ********************************

?C_C51STARTUP                                 ----- -----

*** NEW ROOT ********************************

?C_C51STARTUP?3                               ----- -----
  +--> main/main

main/main                                     ----- -----
  +--> DisableGlobalIRQ/board
  +--> board_init/board
  +--> lcd_init_simspi/SEEKFREE_18TFT
  +--> pit_timer_ms/zf_tim
  +--> pwm_init/zf_pwm
  +--> adc_init/zf_adc
  +--> ctimer_count_init/zf_tim
  +--> gpio_mode/zf_gpio
  +--> ADV_Init/isr
  +--> delay_ms/zf_delay
  +--> TFTLCD_show/isr
  +--> EnableGlobalIRQ/board
  +--> show_dirve/isr

DisableGlobalIRQ/board                        ----- -----

board_init/board                              ----- -----
  +--> set_clk/board
  +--> delay_init/zf_delay
  +--> uart_init/zf_uart

set_clk/board                                 ----- -----

delay_init/zf_delay                           ----- -----
  +--> SLDIV/STC_MDU32

SLDIV/STC_MDU32                               ----- -----

uart_init/zf_uart                             05ABH 05B0H
  +--> ULDIV/STC_MDU32

ULDIV/STC_MDU32                               ----- -----

lcd_init_simspi/SEEKFREE_18TFT                ----- -----
  +--> delay_ms/zf_delay
  +--> lcd_writeIndex_simspi/SEEKFREE_18TFT
  +--> lcd_writeData_simspi/SEEKFREE_18TFT
L251 LINKER/LOCATER V4.66.93.0                                                        07/17/2022  02:20:12  PAGE 15


  +--> lcd_clear_simspi/SEEKFREE_18TFT

delay_ms/zf_delay                             ----- -----

lcd_writeIndex_simspi/SEEKFREE_18TFT          ----- -----

lcd_writeData_simspi/SEEKFREE_18TFT           ----- -----

lcd_clear_simspi/SEEKFREE_18TFT               ----- -----
  +--> lcd_set_region_simspi/SEEKFREE_18TFT
  +--> lcd_writeData_16bit_simspi/SEEKFREE_18TFT

lcd_set_region_simspi/SEEKFREE_18TFT          05DFH 05E2H
  +--> lcd_writeIndex_simspi/SEEKFREE_18TFT
  +--> lcd_writeData_simspi/SEEKFREE_18TFT

lcd_writeData_16bit_simspi/SEEKFREE_18TF+     ----- -----
... T

pit_timer_ms/zf_tim                           ----- -----
  +--> SLDIV/STC_MDU32

pwm_init/zf_pwm                               05ABH 05B2H
  +--> pwm_set_gpio/zf_pwm
  +--> ULDIV/STC_MDU32
  +--> ULIDIV/STC_MDU32
  +--> FCASTL/DFPMU_SP
  +--> FPDIV/DFPMU_SP
  +--> FPMUL/DFPMU_SP
  +--> CASTF/DFPMU_SP

pwm_set_gpio/zf_pwm                           ----- -----
  +--> gpio_mode/zf_gpio

gpio_mode/zf_gpio                             ----- -----

ULIDIV/STC_MDU32                              ----- -----

adc_init/zf_adc                               ----- -----

ctimer_count_init/zf_tim                      ----- -----

ADV_Init/isr                                  05ABH 05D4H
  +--> at24c02_read_byte/SEEKFREE_AT24C02
  +--> at24c02_read_uint16/SEEKFREE_AT24C02
  +--> delay_ms/zf_delay
  +--> FCASTC/DFPMU_SP
  +--> FPDIV/DFPMU_SP
  +--> FCASTI/DFPMU_SP
  +--> lcd_showstr_simspi/SEEKFREE_18TFT
  +--> adc_once/zf_adc
  +--> SPRINTF/SPRINTF
  +--> key_read/isr
  +--> at24c02_write_uint16/SEEKFREE_AT24C02
  +--> lcd_clear_simspi/SEEKFREE_18TFT

at24c02_read_byte/SEEKFREE_AT24C02            ----- -----
  +--> delay_ms/zf_delay
  +--> simiic_read_reg/SEEKFREE_IIC

simiic_read_reg/SEEKFREE_IIC                  ----- -----
  +--> simiic_start/SEEKFREE_IIC
  +--> send_ch/SEEKFREE_IIC
  +--> simiic_stop/SEEKFREE_IIC
  +--> read_ch/SEEKFREE_IIC
L251 LINKER/LOCATER V4.66.93.0                                                        07/17/2022  02:20:12  PAGE 16



simiic_start/SEEKFREE_IIC                     ----- -----
  +--> simiic_delay/SEEKFREE_IIC

simiic_delay/SEEKFREE_IIC                     ----- -----

send_ch/SEEKFREE_IIC                          ----- -----
  +--> simiic_delay/SEEKFREE_IIC
  +--> sccb_waitack/SEEKFREE_IIC

sccb_waitack/SEEKFREE_IIC                     ----- -----
  +--> simiic_delay/SEEKFREE_IIC

simiic_stop/SEEKFREE_IIC                      ----- -----
  +--> simiic_delay/SEEKFREE_IIC

read_ch/SEEKFREE_IIC                          ----- -----
  +--> simiic_delay/SEEKFREE_IIC
  +--> simiic_sendack/SEEKFREE_IIC

simiic_sendack/SEEKFREE_IIC                   ----- -----
  +--> simiic_delay/SEEKFREE_IIC

at24c02_read_uint16/SEEKFREE_AT24C02          ----- -----
  +--> delay_ms/zf_delay
  +--> simiic_read_reg/SEEKFREE_IIC
  +--> at24c02_read_byte/SEEKFREE_AT24C02

FCASTC/DFPMU_SP                               ----- -----

lcd_showstr_simspi/SEEKFREE_18TFT             05D5H 05DAH
  +--> lcd_showchar_simspi/SEEKFREE_18TFT

lcd_showchar_simspi/SEEKFREE_18TFT            05DBH 05DEH
  +--> lcd_set_region_simspi/SEEKFREE_18TFT
  +--> lcd_writeData_16bit_simspi/SEEKFREE_18TFT

SPRINTF/SPRINTF                               05D5H 05FCH
  +--> OUT/SPRINTF

OUT/SPRINTF                                   ----- -----
  +--> PUTCH/SPRINTF

PUTCH/SPRINTF                                 ----- -----

key_read/isr                                  ----- -----

at24c02_write_uint16/SEEKFREE_AT24C02         ----- -----
  +--> delay_ms/zf_delay
  +--> simiic_write_reg/SEEKFREE_IIC

simiic_write_reg/SEEKFREE_IIC                 ----- -----
  +--> simiic_start/SEEKFREE_IIC
  +--> send_ch/SEEKFREE_IIC
  +--> simiic_stop/SEEKFREE_IIC

TFTLCD_show/isr                               ----- -----
  +--> view_0_handle/isr
  +--> view_1_handle/isr
  +--> view_2_handle/isr
  +--> view_3_handle/isr
  +--> lcd_clear_simspi/SEEKFREE_18TFT
  +--> delay_ms/zf_delay
  +--> Star_handle/isr
  +--> EnableGlobalIRQ/board
L251 LINKER/LOCATER V4.66.93.0                                                        07/17/2022  02:20:12  PAGE 17



view_0_handle/isr                             ----- -----
  +--> SPRINTF/SPRINTF
  +--> lcd_showstr_simspi/SEEKFREE_18TFT
  +--> lcd_showchar_simspi/SEEKFREE_18TFT
  +--> key_read/isr
  +--> at24c02_write_byte/SEEKFREE_AT24C02
  +--> at24c02_write_uint16/SEEKFREE_AT24C02
  +--> FPMUL/DFPMU_SP
  +--> CASTF/DFPMU_SP
  +--> lcd_clear_simspi/SEEKFREE_18TFT
  +--> FPADD/DFPMU_SP
  +--> FPSUB/DFPMU_SP

at24c02_write_byte/SEEKFREE_AT24C02           ----- -----
  +--> delay_ms/zf_delay
  +--> simiic_write_reg/SEEKFREE_IIC

view_1_handle/isr                             ----- -----
  +--> SPRINTF/SPRINTF
  +--> lcd_showstr_simspi/SEEKFREE_18TFT
  +--> lcd_showchar_simspi/SEEKFREE_18TFT
  +--> key_read/isr
  +--> at24c02_write_uint16/SEEKFREE_AT24C02
  +--> FPMUL/DFPMU_SP
  +--> CASTF/DFPMU_SP
  +--> lcd_clear_simspi/SEEKFREE_18TFT
  +--> FCASTI/DFPMU_SP
  +--> FPDIV/DFPMU_SP
  +--> FPADD/DFPMU_SP
  +--> FPSUB/DFPMU_SP

view_2_handle/isr                             ----- -----
  +--> SPRINTF/SPRINTF
  +--> lcd_showstr_simspi/SEEKFREE_18TFT
  +--> lcd_showchar_simspi/SEEKFREE_18TFT
  +--> key_read/isr
  +--> FPMUL/DFPMU_SP
  +--> CASTF/DFPMU_SP
  +--> at24c02_write_uint16/SEEKFREE_AT24C02
  +--> lcd_clear_simspi/SEEKFREE_18TFT
  +--> FCASTI/DFPMU_SP
  +--> FPDIV/DFPMU_SP
  +--> FPADD/DFPMU_SP
  +--> FPSUB/DFPMU_SP

view_3_handle/isr                             ----- -----
  +--> SPRINTF/SPRINTF
  +--> lcd_showstr_simspi/SEEKFREE_18TFT
  +--> lcd_showchar_simspi/SEEKFREE_18TFT
  +--> key_read/isr
  +--> at24c02_write_uint16/SEEKFREE_AT24C02
  +--> lcd_clear_simspi/SEEKFREE_18TFT

EnableGlobalIRQ/board                         ----- -----

show_dirve/isr                                05ABH 05D2H
  +--> SPRINTF/SPRINTF
  +--> lcd_showstr_simspi/SEEKFREE_18TFT
  +--> key_read/isr
  +--> lcd_clear_simspi/SEEKFREE_18TFT
  +--> delay_ms/zf_delay

*** NEW ROOT ********************************

L251 LINKER/LOCATER V4.66.93.0                                                        07/17/2022  02:20:12  PAGE 18


?C_C51STARTUP?2                               ----- -----



PUBLIC SYMBOLS OF MODULE:  .\Out_File\SEEKFREE (board)


      VALUE       CLASS    TYPE      PUBLIC SYMBOL NAME
      =================================================
      00FF14B7H   CODE     ---       ?C?BMOVENP
      00FF14B5H   CODE     ---       ?C?BMOVENP8
      00FF55F1H   CODE     ---       ?C?CASTF
      000000FFH   NUMBER   ---       ?C?CODESEG
      00FF55F7H   CODE     ---       ?C?FCASTC
      00FF55FDH   CODE     ---       ?C?FCASTI
      00FF005EH   CODE     ---       ?C?FCASTL
      00FF0006H   CODE     ---       ?C?FPADD
      00FF0046H   CODE     ---       ?C?FPCMP3
      00FF1318H   CODE     ---       ?C?FPCONVERT
      00FF001EH   CODE     ---       ?C?FPDIV
      00FF0016H   CODE     ---       ?C?FPMUL
      00FF55EAH   CODE     ---       ?C?FPNEG
      00FF13D0H   CODE     ---       ?C?FPROUND
      00FF000EH   CODE     ---       ?C?FPSUB
      00FF1443H   CODE     ---       ?C?FTNPWR
      00FF50D1H   CODE     ---       ?C?INITEDATA
      00FF6025H   HCONST   WORD      ?C?INITEDATA_END
      00FF14ACH   CODE     ---       ?C?LIMUL
*DEL*:00000000H   CODE     ---       ?C?LMUL
      00FF0EFBH   CODE     ---       ?C?PRNFMT
      00FF147AH   CODE     ---       ?C?SIDIV
      00FF008EH   CODE     ---       ?C?SLDIV
      00FF0000H   CODE     ---       ?C?STARTUP
      00FF007FH   CODE     ---       ?C?ULDIV
      00FF0086H   CODE     ---       ?C?ULIDIV
      00000001H   NUMBER   ---       ?C?XDATASEG
      00FF0000H   CODE     ---       ?C_STARTUP
*DEL*:1FFFFFF8H   EDATA    ---       ?data_conversion?BYTE
*DEL*:1FFFFFF8H   EDATA    ---       ?fifo_init?BYTE
*DEL*:1FFFFFFCH   EDATA    ---       ?fifo_read_buffer?BYTE
*DEL*:1FFFFFFCH   EDATA    ---       ?fifo_write_buffer?BYTE
*DEL*:1FFFFFF8H   EDATA    BYTE      ?Fuzzy_Update?BYTE
*DEL*:1FFFFFFCH   EDATA    BYTE      ?ICM_AHRSupdate?BYTE
*DEL*:1FFFFFFAH   EDATA    ---       ?iic_init?BYTE
*DEL*:1FFFFFFCH   EDATA    BYTE      ?ips114_showfloat?BYTE
*DEL*:1FFFFFFCH   EDATA    BYTE      ?ips114_showfloat_simspi?BYTE
*DEL*:1FFFFFFCH   EDATA    BYTE      ?lcd_showfloat?BYTE
*DEL*:1FFFFFFCH   EDATA    BYTE      ?lcd_showfloat_simspi?BYTE
*DEL*:1FFFFFF7H   EDATA    ---       ?number_conversion_ascii?BYTE
*DEL*:1FFFFFFCH   EDATA    ---       ?oled_printf_float?BYTE
*DEL*:1FFFFFFCH   EDATA    ---       ?oled_printf_float_spi?BYTE
*DEL*:1FFFFFFAH   EDATA    ---       ?pwm_freq?BYTE
      000005A9H   EDATA    ---       ?pwm_init?BYTE
*DEL*:1FFFFFF7H   EDATA    ---       ?spi_init?BYTE
      000005FDH   EDATA    ---       ?sprintf?BYTE
      000005A5H   EDATA    ---       ?uart_init?BYTE
*DEL*:00000028H   EDATA    ---       ?zf_sprintf?BYTE
      00FF55A1H   CODE     ---       abs_float
*DEL*:00000000H   CODE     ---       abs_int
*SFR* 000000E0H   DATA     BYTE      ACC
      00000014H   EDATA    ---       AD
      0000008BH   EDATA    INT       ad3_grow_flag
      000000D2H   EDATA    ---       AD_V
      000000EEH   EDATA    FLOAT     ADC_Compensate
*SFR* 000000DCH   DATA     BYTE      ADC_CONTR
L251 LINKER/LOCATER V4.66.93.0                                                        07/17/2022  02:20:12  PAGE 19


      00000101H   EDATA    CHAR      adc_get
      00000100H   EDATA    CHAR      adc_get_flag
      00FF4E68H   CODE     ---       adc_init
      00FF5321H   CODE     ---       adc_once
*SFR* 000000DDH   DATA     BYTE      ADC_RES
*SFR* 000000DEH   DATA     BYTE      ADC_RESL
*SFR* 000000DFH   DATA     BYTE      ADCCFG
      00FF14DAH   CODE     ---       ADV_Init
*DEL*:00000000H   CODE     ---       ANO_DT_Send_Data
*DEL*:00000000H   CODE     ---       ANO_DT_SendtoUSER
      00FF5557H   CODE     ---       at24c02_read_byte
*DEL*:00000000H   CODE     ---       at24c02_read_bytes
      00FF537DH   CODE     ---       at24c02_read_uint16
      00FF0066H   CODE     ---       at24c02_write_byte
*DEL*:00000000H   CODE     ---       at24c02_write_bytes
      00FF52F2H   CODE     ---       at24c02_write_uint16
      00000626H   EDATA    BYTE      at_mode
      00000627H   EDATA    BYTE      at_mode_cmd_flag
      00000606H   EDATA    ---       at_mode_data
      000005FEH   EDATA    BYTE      at_mode_num
*DEL*:00000000H   CODE     ---       atan2?_
*DEL*:00000000H   CODE     ---       ATAN?_
*SFR* 000000DAH   DATA     BYTE      AUXINTIF
*SFR* 00000093H   DATA     BYTE      AUXR
      00000010H   EDATA    INT       beishu
*DEL*:00000000H   CODE     ---       bluetooth_ch9141_check_response
*DEL*:00000000H   CODE     ---       bluetooth_ch9141_connect
*DEL*:00000000H   CODE     ---       bluetooth_ch9141_default_connect
*DEL*:00000000H   CODE     ---       bluetooth_ch9141_enter_at_mode
*DEL*:00000000H   CODE     ---       bluetooth_ch9141_exit_at_mode
*DEL*:00000000H   CODE     ---       bluetooth_ch9141_get_mac_address
*DEL*:00000000H   CODE     ---       bluetooth_ch9141_get_rssi
*DEL*:00000000H   CODE     ---       bluetooth_ch9141_get_status
*DEL*:00000000H   CODE     ---       bluetooth_ch9141_init
*DEL*:00000000H   CODE     ---       bluetooth_ch9141_reset
      000005FDH   EDATA    BYTE      bluetooth_ch9141_rx_buffer
*DEL*:00000000H   CODE     ---       bluetooth_ch9141_send_at_command
*DEL*:00000000H   CODE     ---       bluetooth_ch9141_send_at_command_parameter
*DEL*:00000000H   CODE     ---       bluetooth_ch9141_send_buff
*DEL*:00000000H   CODE     ---       bluetooth_ch9141_set_mode
*DEL*:00000000H   CODE     ---       bluetooth_ch9141_set_name
*DEL*:00000000H   CODE     ---       bluetooth_ch9141_set_password
*DEL*:00000000H   CODE     ---       bluetooth_ch9141_set_tx_power
*DEL*:00000000H   CODE     ---       bluetooth_ch9141_uart_callback
      00FF4B98H   CODE     ---       board_init
      00000428H   EDATA    ---       busy
*DEL*:00000000H   CODE     ---       ccd_collect
      00000260H   EDATA    ---       ccd_data
*DEL*:00000000H   CODE     ---       ccd_init
*DEL*:00000000H   CODE     ---       ccd_send_data
      0000000AH   EDATA    FLOAT     chashu
      000001FDH   EDATA    CHAR      chashu_flag
      000001E1H   EDATA    INT       circle
      000001DFH   EDATA    INT       circle_before_cnt
      000001FEH   EDATA    FLOAT     Circle_H
      0000011FH   EDATA    INT       circle_in_cnt
      000001B4H   EDATA    INT       circle_in_max_left
      00000153H   EDATA    INT       circle_in_max_right
      00000093H   EDATA    INT       circle_max
      00000151H   EDATA    INT       circle_out_max
      00000008H   EDATA    INT       circle_out_max_cnt
      000001FBH   EDATA    INT       circle_run_max_cnt
      00000202H   EDATA    INT       circle_run_p
      00000062H   EDATA    FLOAT     Circle_S
      00000071H   EDATA    ---       circle_size
L251 LINKER/LOCATER V4.66.93.0                                                        07/17/2022  02:20:12  PAGE 20


      00000056H   EDATA    ---       circles_size
      000001C2H   EDATA    CHAR      cirlces_flag
      000000B7H   EDATA    DWORD     clkk
      000000FCH   EDATA    LONG      cnt
      0000011CH   EDATA    CHAR      cnt_left
      000001B3H   EDATA    CHAR      cnt_star
      00000070H   EDATA    CHAR      Compensate_flag
      00FF5222H   CODE     ---       Control
*DEL*:00000000H   CODE     ---       COS?_
      000000BFH   EDATA    INT       count
*DEL*:00000000H   CODE     ---       CRC_CHECK
      000000ECH   EDATA    INT       cross1_in_max
      000000F6H   EDATA    INT       cross2_in_max
      0000008DH   EDATA    FLOAT     cross2_out
      0000011DH   EDATA    INT       cross_cnt
      000001F9H   EDATA    INT       cross_cnt_max
      000000C8H   EDATA    FLOAT     Cross_H
      00FF3A18H   CODE     ---       Cross_handle
      0000011AH   EDATA    INT       Cross_Process
      000000CCH   EDATA    INT       cross_run_p
      000000F2H   EDATA    FLOAT     Cross_S
      000000F8H   EDATA    INT       Cross_sum
*DEL*:00000000H   CODE     ---       ctimer_count_clean
      00FF4FAEH   CODE     ---       ctimer_count_init
      00FF4D34H   CODE     ---       ctimer_count_read
*DEL*:00000000H   CODE     ---       data_conversion
      0000063CH   EDATA    ---       data_to_send
      00FF46F3H   CODE     ---       Date_analyse
      00FF51E9H   CODE     ---       delay_init
      00FF5540H   CODE     ---       delay_ms
*DEL*:00000000H   CODE     ---       delay_us
      00FF4A6CH   CODE     ---       Descent_handle
      0000006BH   EDATA    INT       Descent_Process
      000001C3H   EDATA    INT       dig1
      000001C5H   EDATA    INT       dig2
      000001C7H   EDATA    INT       dig3
      000001C9H   EDATA    INT       dig4
      000001CDH   EDATA    INT       dig_sum
      000000EBH   EDATA    BYTE      dis_flag
      00FF009EH   CODE     ---       DisableGlobalIRQ
      00000118H   EDATA    WORD      distance
      000000FAH   EDATA    WORD      distances
*SFR* 0000008FH   DATA     BYTE      DMAIR
*SFR* 00000083H   DATA     BYTE      DPH
*SFR* 00000082H   DATA     BYTE      DPL
      0000042DH   EDATA    ---       Duoji_P
      00000553H   EDATA    INT       duojikd_fork
      00000557H   EDATA    INT       duojikd_normal_sqrt
      00000569H   EDATA    INT       duojikd_round
      00000559H   EDATA    INT       duojikp_fork
      0000055BH   EDATA    INT       duojikp_normal_sqrt
      00000555H   EDATA    INT       duojikp_round
*SFR* 000000A8H.7 DATA     BIT       EA
      00FF0096H   CODE     ---       EnableGlobalIRQ
*DEL*:00000000H   CODE     ---       encoder_angle_simspi
*DEL*:00000000H   CODE     ---       encoder_angle_spi
*DEL*:00000000H   CODE     ---       encoder_delay_us
*DEL*:00000000H   CODE     ---       encoder_init_simspi
*DEL*:00000000H   CODE     ---       encoder_init_spi
*DEL*:00000000H   CODE     ---       encoder_self4_check
*DEL*:00000000H   CODE     ---       encoder_self5_check
*DEL*:00000000H   CODE     ---       encoder_simspi_r_reg_byte
*DEL*:00000000H   CODE     ---       encoder_simspi_w_reg_byte
*DEL*:00000000H   CODE     ---       encoder_spi_r_reg_byte
*DEL*:00000000H   CODE     ---       encoder_spi_w_reg_byte
L251 LINKER/LOCATER V4.66.93.0                                                        07/17/2022  02:20:12  PAGE 21


      00FF5175H   CODE     ---       err_get
*DEL*:00000000H   CODE     ---       err_get_b
      00FF51AFH   CODE     ---       err_get_cross
      00FF4DA2H   CODE     ---       err_get_f
      00FF5503H   CODE     ---       err_in_cross
      000001E5H   EDATA    INT       error_dig4
*SFR* 000000A8H.4 DATA     BIT       ES
*SFR* 000000A8H.1 DATA     BIT       ET0
*SFR* 000000A8H.3 DATA     BIT       ET1
      000004F9H   EDATA    ---       eulerAngle
*SFR* 000000A8H.0 DATA     BIT       EX0
*SFR* 000000A8H.2 DATA     BIT       EX1
*DEL*:00000000H   CODE     ---       exit_init
      000001BCH   EDATA    FLOAT     f_duoji
      00000102H   EDATA    FLOAT     f_tanA
*DEL*:00000000H   CODE     ---       FABS?_
*DEL*:00000000H   CODE     ---       fast_sqrt
*DEL*:00000000H   CODE     ---       FCLEX
*DEL*:00000000H   CODE     ---       fifo_clear
*DEL*:00000000H   CODE     ---       fifo_end_offset
*DEL*:00000000H   CODE     ---       fifo_head_offset
*DEL*:00000000H   CODE     ---       fifo_init
*DEL*:00000000H   CODE     ---       fifo_read_buffer
*DEL*:00000000H   CODE     ---       fifo_used
*DEL*:00000000H   CODE     ---       fifo_write_buffer
*DEL*:00000000H   CODE     ---       FINIT
      000000D0H   EDATA    INT       flag_star
      000001CBH   EDATA    INT       fork_back_mid_max
      00000155H   EDATA    INT       fork_back_side_max
      0000000EH   EDATA    INT       fork_cnt_max
      000000C1H   EDATA    CHAR      fork_flag
      00FF4009H   CODE     ---       Fork_Lhandle
      0000016DH   EDATA    INT       fork_max
      000001E7H   EDATA    INT       fork_mid_max
      000001E3H   EDATA    INT       fork_mid_min
      00000159H   EDATA    INT       Fork_Process
      00FF448AH   CODE     ---       Fork_Rhandle
      000001B6H   EDATA    INT       fork_side_max
      000001B1H   EDATA    INT       fork_side_min
      00000177H   EDATA    INT       fork_turn
*DEL*:00000000H   CODE     ---       FPCRR
*DEL*:00000000H   CODE     ---       FPCRW
*DEL*:00000000H   CODE     ---       FPSRR
*DEL*:00000000H   CODE     ---       FPSRW
*DEL*:00000000H   CODE     ---       Fuzzy_sp
*DEL*:00000000H   CODE     ---       Fuzzy_Update
*DEL*:00000000H   CODE     ---       FuzzyCtrl
*DEL*:00000000H   CODE     ---       FXAM
*DEL*:00000000H   CODE     ---       get_clk
*DEL*:00000000H   CODE     ---       get_icm20602_accdata_simiic
*DEL*:00000000H   CODE     ---       get_icm20602_accdata_simspi
*DEL*:00000000H   CODE     ---       get_icm20602_gyro_simiic
*DEL*:00000000H   CODE     ---       get_icm20602_gyro_simspi
      00000171H   EDATA    INT       GoalPulseL
      000000BDH   EDATA    INT       GoalPulseLL
      000001C0H   EDATA    INT       GoalPulseR
      000000CEH   EDATA    INT       GoalPulseRR
      00FF1E28H   CODE     ---       gpio_mode
*DEL*:00000000H   CODE     ---       gpio_pull_set
      00000505H   EDATA    ---       GyroOffset
*DEL*:00000000H   CODE     ---       gyroOffset_init
      000004EDH   EDATA    FLOAT     I_ex
      000004F1H   EDATA    FLOAT     I_ey
      000004F5H   EDATA    FLOAT     I_ez
*SFR* 000000C7H   DATA     BYTE      IAP_CONTR
L251 LINKER/LOCATER V4.66.93.0                                                        07/17/2022  02:20:12  PAGE 22


*DEL*:00000000H   CODE     ---       icm20602_init_simiic
*DEL*:00000000H   CODE     ---       icm20602_init_simspi
*DEL*:00000000H   CODE     ---       icm20602_self1_check
*DEL*:00000000H   CODE     ---       icm20602_self4_check
      00000511H   EDATA    INT       icm_acc_x
      00000513H   EDATA    INT       icm_acc_y
      00000515H   EDATA    INT       icm_acc_z
*DEL*:00000000H   CODE     ---       ICM_AHRSupdate
      00000521H   EDATA    ---       icm_data
*DEL*:00000000H   CODE     ---       ICM_getEulerianAngles
*DEL*:00000000H   CODE     ---       ICM_getValues
      00000539H   EDATA    INT       icm_gyro_x
      0000053BH   EDATA    INT       icm_gyro_y
      0000053DH   EDATA    INT       icm_gyro_z
*DEL*:00000000H   CODE     ---       icm_simspi_r_reg_byte
*DEL*:00000000H   CODE     ---       icm_simspi_r_reg_bytes
*DEL*:00000000H   CODE     ---       icm_simspi_w_reg_byte
*DEL*:00000000H   CODE     ---       icm_simspi_wr_byte
*SFR* 000000A8H   DATA     BYTE      IE
*SFR* 000000E7H   DATA     BYTE      IE2
      000006ACH   EDATA    BYTE      IIC_ad_main
      000006AEH   EDATA    BYTE      IIC_ad_sub
      000006AFH   EDATA    ---       IIC_buf
*DEL*:00000000H   CODE     ---       iic_change_pin
*DEL*:00000000H   CODE     ---       iic_delay_us
*DEL*:00000000H   CODE     ---       iic_init
      000006ADH   EDATA    BYTE      IIC_num
*DEL*:00000000H   CODE     ---       iic_read_reg
*DEL*:00000000H   CODE     ---       iic_read_reg_bytes
*DEL*:00000000H   CODE     ---       iic_write_reg
      00FF4934H   CODE     ---       Incremental_PI_L
      00FF49D0H   CODE     ---       Incremental_PI_R
      0000051FH   EDATA    WORD      init
      000000C4H   EDATA    FLOAT     input
      000001B8H   EDATA    FLOAT     input1
      00FF547BH   CODE     ---       INT0_Isr
      00FF55C1H   CODE     ---       INT1_Isr
      00FF557FH   CODE     ---       INT2_Isr
      00FF5590H   CODE     ---       INT3_Isr
      00FF55DAH   CODE     ---       INT4_Isr
*SFR* 00000095H   DATA     BYTE      INTCLKO
*SFR* 000000B8H   DATA     BYTE      IP
*SFR* 000000FEH   DATA     BYTE      IP2
*SFR* 000000B6H   DATA     BYTE      IP2H
*SFR* 000000B7H   DATA     BYTE      IPH
*DEL*:00000000H   CODE     ---       ips114_clear
*DEL*:00000000H   CODE     ---       ips114_clear_simspi
*DEL*:00000000H   CODE     ---       ips114_drawpoint
*DEL*:00000000H   CODE     ---       ips114_drawpoint_simspi
*DEL*:00000000H   CODE     ---       ips114_init
*DEL*:00000000H   CODE     ---       ips114_init_simspi
*DEL*:00000000H   CODE     ---       ips114_set_region
*DEL*:00000000H   CODE     ---       ips114_set_region_simspi
*DEL*:00000000H   CODE     ---       ips114_showchar
*DEL*:00000000H   CODE     ---       ips114_showchar_simspi
*DEL*:00000000H   CODE     ---       ips114_showfloat
*DEL*:00000000H   CODE     ---       ips114_showfloat_simspi
*DEL*:00000000H   CODE     ---       ips114_showint16
*DEL*:00000000H   CODE     ---       ips114_showint16_simspi
*DEL*:00000000H   CODE     ---       ips114_showint32
*DEL*:00000000H   CODE     ---       ips114_showint32_simspi
*DEL*:00000000H   CODE     ---       ips114_showint8
*DEL*:00000000H   CODE     ---       ips114_showint8_simspi
*DEL*:00000000H   CODE     ---       ips114_showstr
*DEL*:00000000H   CODE     ---       ips114_showstr_simspi
L251 LINKER/LOCATER V4.66.93.0                                                        07/17/2022  02:20:12  PAGE 23


*DEL*:00000000H   CODE     ---       ips114_showuint16
*DEL*:00000000H   CODE     ---       ips114_showuint16_simspi
*DEL*:00000000H   CODE     ---       ips114_showuint8
*DEL*:00000000H   CODE     ---       ips114_showuint8_simspi
*DEL*:00000000H   CODE     ---       ips114_writeData
*DEL*:00000000H   CODE     ---       ips114_writedata_16bit
*DEL*:00000000H   CODE     ---       ips114_writeData_simspi
*DEL*:00000000H   CODE     ---       ips114_writeDatai_16bit_simspi
*DEL*:00000000H   CODE     ---       ips114_writeIndex
*DEL*:00000000H   CODE     ---       ips114_writeIndex_simspi
*SFR* 000000A9H   DATA     BYTE      IRCBAND
*SFR* 0000009FH   DATA     BYTE      IRTRIM
*SFR* 00000088H.0 DATA     BIT       IT0
*SFR* 00000088H.2 DATA     BIT       IT1
      00FF54E3H   CODE     ---       key_read
*DEL*:00000000H   CODE     ---       lcd_clear
      00FF53D7H   CODE     ---       lcd_clear_simspi
*DEL*:00000000H   CODE     ---       lcd_drawpoint
*DEL*:00000000H   CODE     ---       lcd_drawpoint_simspi
*DEL*:00000000H   CODE     ---       lcd_init
      00FF3C5BH   CODE     ---       lcd_init_simspi
*DEL*:00000000H   CODE     ---       lcd_set_region
      00FF4F62H   CODE     ---       lcd_set_region_simspi
*DEL*:00000000H   CODE     ---       lcd_showchar
      00FF4C28H   CODE     ---       lcd_showchar_simspi
*DEL*:00000000H   CODE     ---       lcd_showfloat
*DEL*:00000000H   CODE     ---       lcd_showfloat_simspi
*DEL*:00000000H   CODE     ---       lcd_showint16
*DEL*:00000000H   CODE     ---       lcd_showint16_simspi
*DEL*:00000000H   CODE     ---       lcd_showint32
*DEL*:00000000H   CODE     ---       lcd_showint32_simspi
*DEL*:00000000H   CODE     ---       lcd_showint8
*DEL*:00000000H   CODE     ---       lcd_showint8_simspi
*DEL*:00000000H   CODE     ---       lcd_showstr
      00FF4EC6H   CODE     ---       lcd_showstr_simspi
*DEL*:00000000H   CODE     ---       lcd_showuint16
*DEL*:00000000H   CODE     ---       lcd_showuint16_simspi
*DEL*:00000000H   CODE     ---       lcd_showuint8
*DEL*:00000000H   CODE     ---       lcd_showuint8_simspi
*DEL*:00000000H   CODE     ---       lcd_writeData
*DEL*:00000000H   CODE     ---       lcd_writedata_16bit
      00FF53ABH   CODE     ---       lcd_writeData_16bit_simspi
      00FF542BH   CODE     ---       lcd_writeData_simspi
*DEL*:00000000H   CODE     ---       lcd_writeIndex
      00FF5402H   CODE     ---       lcd_writeIndex_simspi
*SFR* 0000009EH   DATA     BYTE      LIRTRIM
      00000628H   EDATA    ---       mac_address
      00FF45EBH   CODE     ---       main
      0000006FH   EDATA    CHAR      match
      0000006AH   EDATA    CHAR      match_flag
      00000012H   EDATA    WORD      max_bianhua
      0000016FH   EDATA    WORD      max_dig
      000000AFH   EDATA    ---       max_fork_h
      00000095H   EDATA    ---       max_v
*DEL*:00000000H   CODE     ---       memcpy?_
      00000091H   EDATA    INT       min_v
      00000066H   EDATA    INT       MotorDutyL
      0000006DH   EDATA    INT       MotorDutyR
*DEL*:00000000H   CODE     ---       mpu6050_get_accdata
*DEL*:00000000H   CODE     ---       mpu6050_get_gyro
*DEL*:00000000H   CODE     ---       mpu6050_init
*DEL*:00000000H   CODE     ---       mpu6050_self1_check
      00000696H   EDATA    INT       mpu_acc_x
      00000698H   EDATA    INT       mpu_acc_y
      0000069AH   EDATA    INT       mpu_acc_z
L251 LINKER/LOCATER V4.66.93.0                                                        07/17/2022  02:20:12  PAGE 24


      0000069CH   EDATA    INT       mpu_gyro_x
      0000069EH   EDATA    INT       mpu_gyro_y
      000006A0H   EDATA    INT       mpu_gyro_z
      00000077H   EDATA    FLOAT     Normal_H
      00FF4CB4H   CODE     ---       Normal_handle
      000000C2H   EDATA    INT       Normal_Process
      000000ABH   EDATA    FLOAT     Normal_S
*DEL*:00000000H   CODE     ---       number_conversion_ascii
*DEL*:00000000H   CODE     ---       NVIC_SetPriority
      00FF0C86H   CODE     ---       oled_6x8
      00FF00A6H   CODE     ---       oled_8x16
*DEL*:00000000H   CODE     ---       oled_clrpixel
*DEL*:00000000H   CODE     ---       oled_clrpixel_spi
*DEL*:00000000H   CODE     ---       oled_dis_bmp
*DEL*:00000000H   CODE     ---       oled_dis_bmp_spi
*DEL*:00000000H   CODE     ---       oled_fill
*DEL*:00000000H   CODE     ---       oled_fill_spi
*DEL*:00000000H   CODE     ---       oled_hexascii
*DEL*:00000000H   CODE     ---       oled_hexascii_spi
*DEL*:00000000H   CODE     ---       oled_init
*DEL*:00000000H   CODE     ---       oled_init_spi
*DEL*:00000000H   CODE     ---       oled_int16
*DEL*:00000000H   CODE     ---       oled_int16_spi
*DEL*:00000000H   CODE     ---       oled_p6x8str
*DEL*:00000000H   CODE     ---       oled_p6x8str_spi
*DEL*:00000000H   CODE     ---       oled_p8x16str
*DEL*:00000000H   CODE     ---       oled_p8x16str_spi
*DEL*:00000000H   CODE     ---       oled_print_chinese
*DEL*:00000000H   CODE     ---       oled_print_chinese_spi
*DEL*:00000000H   CODE     ---       oled_printf_float
*DEL*:00000000H   CODE     ---       oled_printf_float_spi
*DEL*:00000000H   CODE     ---       oled_printf_int32
*DEL*:00000000H   CODE     ---       oled_printf_int32_spi
*DEL*:00000000H   CODE     ---       oled_putpixel
*DEL*:00000000H   CODE     ---       oled_putpixel_spi
*DEL*:00000000H   CODE     ---       oled_set_pos
*DEL*:00000000H   CODE     ---       oled_set_pos_spi
*DEL*:00000000H   CODE     ---       oled_uint16
*DEL*:00000000H   CODE     ---       oled_uint16_spi
*DEL*:00000000H   CODE     ---       oled_wrcmd
*DEL*:00000000H   CODE     ---       oled_wrcmd_spi
*DEL*:00000000H   CODE     ---       oled_wrdat
*DEL*:00000000H   CODE     ---       oled_wrdat_spi
*SFR* 00000080H   DATA     BYTE      P0
*SFR* 00000080H.7 DATA     BIT       P07
*SFR* 000000F2H   DATA     BYTE      P0M0
*SFR* 000000F1H   DATA     BYTE      P0M1
*SFR* 00000090H   DATA     BYTE      P1
*SFR* 000000F4H   DATA     BYTE      P1M0
*SFR* 000000F3H   DATA     BYTE      P1M1
*SFR* 000000A0H   DATA     BYTE      P2
*SFR* 000000A0H.0 DATA     BIT       P20
*SFR* 000000A0H.1 DATA     BIT       P21
*SFR* 000000A0H.2 DATA     BIT       P22
*SFR* 000000A0H.3 DATA     BIT       P23
*SFR* 000000A0H.4 DATA     BIT       P24
*SFR* 000000A0H.5 DATA     BIT       P25
*SFR* 000000A0H.6 DATA     BIT       P26
*SFR* 000000A0H.7 DATA     BIT       P27
*SFR* 000000F6H   DATA     BYTE      P2M0
*SFR* 000000F5H   DATA     BYTE      P2M1
*SFR* 000000B0H   DATA     BYTE      P3
*SFR* 000000B0H.2 DATA     BIT       P32
*SFR* 000000B0H.3 DATA     BIT       P33
*SFR* 000000B0H.5 DATA     BIT       P35
L251 LINKER/LOCATER V4.66.93.0                                                        07/17/2022  02:20:12  PAGE 25


*SFR* 000000FAH   DATA     BYTE      P3M0
*SFR* 000000F9H   DATA     BYTE      P3M1
*SFR* 000000C0H   DATA     BYTE      P4
*SFR* 000000C0H.0 DATA     BIT       P40
*SFR* 000000C0H.1 DATA     BIT       P41
*SFR* 000000C0H.4 DATA     BIT       P44
*SFR* 000000C0H.5 DATA     BIT       P45
*SFR* 000000C0H.6 DATA     BIT       P46
*SFR* 000000FCH   DATA     BYTE      P4M0
*SFR* 000000FBH   DATA     BYTE      P4M1
*SFR* 000000C8H   DATA     BYTE      P5
*SFR* 000000C8H.0 DATA     BIT       P50
*SFR* 000000C8H.1 DATA     BIT       P51
*SFR* 000000C8H.2 DATA     BIT       P52
*SFR* 000000C8H.3 DATA     BIT       P53
*SFR* 000000EDH   DATA     BYTE      P5M0
*SFR* 000000ECH   DATA     BYTE      P5M1
*SFR* 000000E8H   DATA     BYTE      P6
*SFR* 000000E8H.3 DATA     BIT       P63
*SFR* 000000E8H.7 DATA     BIT       P67
*SFR* 000000EFH   DATA     BYTE      P6M0
*SFR* 000000EEH   DATA     BYTE      P6M1
*SFR* 000000F8H   DATA     BYTE      P7
*SFR* 000000F8H.0 DATA     BIT       P70
*SFR* 000000F8H.1 DATA     BIT       P71
*SFR* 000000F8H.2 DATA     BIT       P72
*SFR* 000000F8H.5 DATA     BIT       P75
*SFR* 000000F8H.7 DATA     BIT       P77
*SFR* 000000D3H   DATA     BYTE      P7M0
*SFR* 000000D2H   DATA     BYTE      P7M1
*SFR* 0000009AH   DATA     BYTE      P_SW1
*SFR* 0000009BH   DATA     BYTE      P_SW2
      00000517H   EDATA    FLOAT     param_Ki
      0000051BH   EDATA    FLOAT     param_Kp
*DEL*:00000000H   CODE     ---       pid_duoji_cross
*DEL*:00000000H   CODE     ---       pid_duoji_fork
      00FF507EH   CODE     ---       pid_duoji_normal_sqrt
*DEL*:00000000H   CODE     ---       pid_duoji_round
      00FF4B04H   CODE     ---       pit_timer_ms
      0000016BH   EDATA    INT       Position
*DEL*:00000000H   CODE     ---       printf_reverse_order
*SFR* 000000D0H   DATA     BYTE      PSW
      00000157H   EDATA    INT       PulseL
      00000173H   EDATA    INT       PulseR
*DEL*:00000000H   CODE     ---       putchar
      00FF619FH   HCONST   ---       PWM_ARR_ADDR
      00FF61A7H   HCONST   ---       PWM_CCER_ADDR
      00FF61B7H   HCONST   ---       PWM_CCMR_ADDR
      00FF617FH   HCONST   ---       PWM_CCR_ADDR
      00FF487CH   CODE     ---       pwm_duty
*DEL*:00000000H   CODE     ---       pwm_freq
      00FF2FC1H   CODE     ---       pwm_init
      00FF32A5H   CODE     ---       pwm_set_gpio
      0000053FH   EDATA    ---       Q_info
      00FF430CH   CODE     ---       Read_ADC
      00FF513AH   CODE     ---       read_ch
*DEL*:00000000H   CODE     ---       recv_ack
*DEL*:00000000H   CODE     ---       recv_data
      00000605H   EDATA    CHAR      res
      00FF294DH   CODE     ---       Round_handle
      00000116H   EDATA    INT       Round_Process
*DEL*:00000000H   CODE     ---       Round_run
*SFR* 000000FFH   DATA     BYTE      RSTCFG
*SFR* 000000E4H   DATA     BYTE      S2BUF
*SFR* 000000E3H   DATA     BYTE      S2CON
L251 LINKER/LOCATER V4.66.93.0                                                        07/17/2022  02:20:12  PAGE 26


*SFR* 000000E6H   DATA     BYTE      S3BUF
*SFR* 000000E5H   DATA     BYTE      S3CON
*SFR* 000000BDH   DATA     BYTE      S4BUF
*SFR* 000000BCH   DATA     BYTE      S4CON
*SFR* 00000099H   DATA     BYTE      SBUF
*SFR* 00000098H   DATA     BYTE      SCON
*DEL*:00000000H   CODE     ---       seekfree_wireless_init
*DEL*:00000000H   CODE     ---       seekfree_wireless_send_buff
*DEL*:00000000H   CODE     ---       send_ack
      00FF534FH   CODE     ---       send_ch
*DEL*:00000000H   CODE     ---       send_data
      0000063BH   EDATA    BYTE      send_flag
*DEL*:00000000H   CODE     ---       Send_Message
*DEL*:00000000H   CODE     ---       send_nak
      0000002AH   EDATA    ---       sensor_to_one
      000000E8H   EDATA    INT       ServoDuty
      00FF47C2H   CODE     ---       set_clk
*DEL*:00000000H   CODE     ---       set_zero_position_simspi
*DEL*:00000000H   CODE     ---       set_zero_position_spi
      00FF418BH   CODE     ---       shibie
      00FF37D4H   CODE     ---       show_dirve
*DEL*:00000000H   CODE     ---       showimage
      00FF55CFH   CODE     ---       simiic_delay
*DEL*:00000000H   CODE     ---       simiic_init
      00FF525BH   CODE     ---       simiic_read_reg
*DEL*:00000000H   CODE     ---       simiic_read_regs
      00FF54C3H   CODE     ---       simiic_sendack
      00FF55B2H   CODE     ---       simiic_start
      00FF556EH   CODE     ---       simiic_stop
      00FF54A1H   CODE     ---       simiic_write_reg
*DEL*:00000000H   CODE     ---       simspi_r_reg_byte
*DEL*:00000000H   CODE     ---       simspi_w_reg_byte
*DEL*:00000000H   CODE     ---       simspi_wr_byte
*DEL*:00000000H   CODE     ---       SIN?_
*SFR* 000000BAH   DATA     BYTE      SPCTL
*SFR* 000000BBH   DATA     BYTE      SPDAT
      00000175H   EDATA    INT       Speed_target
*DEL*:00000000H   CODE     ---       spi_change_mode
*DEL*:00000000H   CODE     ---       spi_change_pin
*DEL*:00000000H   CODE     ---       spi_init
*DEL*:00000000H   CODE     ---       spi_mosi
*DEL*:00000000H   CODE     ---       spi_r_reg_byte
*DEL*:00000000H   CODE     ---       spi_w_reg_byte
*DEL*:00000000H   CODE     ---       spi_wr_byte
      00FF503CH   CODE     ---       Split_Ultrasonic_callback
      00FF0EAEH   CODE     NEAR LAB  sprintf
*SFR* 000000B9H   DATA     BYTE      SPSTAT
      00FF0056H   CODE     ---       SQRT?_
*DEL*:00000000H   CODE     ---       sss
      00FF52C2H   CODE     ---       Star_handle
*DEL*:00000000H   CODE     ---       start
*DEL*:00000000H   CODE     ---       stop
      0000066EH   EDATA    ---       str
*DEL*:00000000H   CODE     ---       strlen?_
*DEL*:00000000H   CODE     ---       strncmp?_
      000006B3H   EDATA    LONG      sys_clk
*SFR* 000000CDH   DATA     BYTE      T2H
*SFR* 000000CEH   DATA     BYTE      T2L
*SFR* 000000CBH   DATA     BYTE      T3H
*SFR* 000000CCH   DATA     BYTE      T3L
*SFR* 000000C9H   DATA     BYTE      T4H
*SFR* 000000CAH   DATA     BYTE      T4L
*SFR* 000000DBH   DATA     BYTE      T4T3M
*DEL*:00000000H   CODE     ---       TAN?_
*SFR* 00000088H   DATA     BYTE      TCON
L251 LINKER/LOCATER V4.66.93.0                                                        07/17/2022  02:20:12  PAGE 27


      00000121H   EDATA    ---       temp_ADC_Compensate
      000001CFH   EDATA    ---       temp_circle_in_max_right
      0000007BH   EDATA    ---       temp_circle_run_p
      00000141H   EDATA    ---       temp_cross1_in_max
      0000015BH   EDATA    ---       temp_cross2_in_max
      00000106H   EDATA    ---       temp_cross_run_p
      000001E9H   EDATA    ---       temp_fork_turn
      000001A1H   EDATA    ---       temp_normal_kp
      00FF0696H   CODE     ---       tft_ascii
      00FF4F14H   CODE     ---       TFTLCD_show
*SFR* 0000008CH   DATA     BYTE      TH0
*SFR* 0000008DH   DATA     BYTE      TH1
      000000BBH   EDATA    WORD      time_5ms
      00000068H   EDATA    INT       timeout
*SFR* 0000008AH   DATA     BYTE      TL0
*SFR* 0000008BH   DATA     BYTE      TL1
      00FF000AH   CODE     ---       TM0_Isr
      00FF0012H   CODE     ---       TM1_Isr
      00FF528FH   CODE     ---       TM2_Isr
      00FF55E2H   CODE     ---       TM3_Isr
      00FF3546H   CODE     ---       TM4_Isr
*SFR* 00000089H   DATA     BYTE      TMOD
*SFR* 00000088H.4 DATA     BIT       TR0
*SFR* 00000088H.6 DATA     BIT       TR1
      0000025FH   EDATA    BYTE      tsl1401_finish_flag
      00FF4FF8H   CODE     ---       Turn_control
      00000179H   EDATA    ---       txt
      00FF50FDH   CODE     ---       UART1_Isr
      00000360H   EDATA    ---       uart1_rx_buff
      000003C4H   EDATA    ---       uart1_tx_buff
      00FF5522H   CODE     ---       UART2_Isr
      00FF5454H   CODE     ---       UART3_Isr
      00FF4E06H   CODE     ---       UART4_Isr
      00000600H   EDATA    ---       uart_data
      00000624H   EDATA    WORD      uart_data_len
      000005FFH   EDATA    BYTE      uart_flag
      00FF3E4AH   CODE     ---       uart_init
*DEL*:00000000H   CODE     ---       uart_putbuff
*DEL*:00000000H   CODE     ---       uart_putchar
*DEL*:00000000H   CODE     ---       uart_putstr
      0000055DH   EDATA    FLOAT     Velocity_KD_L
      00000565H   EDATA    FLOAT     Velocity_KD_R
      00000561H   EDATA    FLOAT     Velocity_KI_L
      0000056BH   EDATA    FLOAT     Velocity_KI_R
      0000056FH   EDATA    FLOAT     Velocity_KP_L
      0000054FH   EDATA    FLOAT     Velocity_KP_R
      000000EAH   EDATA    BYTE      view
      00FF25B8H   CODE     ---       view_0_handle
      00FF1A28H   CODE     ---       view_1_handle
      00FF221FH   CODE     ---       view_2_handle
      00FF2CBFH   CODE     ---       view_3_handle
      000006A2H   EDATA    ---       virtual_scope_data
*DEL*:00000000H   CODE     ---       wait
      000006BBH   EDATA    INT       wireless_type
*DEL*:00000000H   CODE     ---       wireless_uart_callback
*SFR* 00000092H   DATA     BYTE      WTST
      000006B7H   EDATA    WORD      zf_delay_ms
      000006B9H   EDATA    WORD      zf_delay_us
*DEL*:00000000H   CODE     ---       zf_sprintf



SYMBOL TABLE OF MODULE:  .\Out_File\SEEKFREE (board)

      VALUE       REP       CLASS    TYPE      SYMBOL NAME
L251 LINKER/LOCATER V4.66.93.0                                                        07/17/2022  02:20:12  PAGE 28


      ====================================================
      ---         MODULE    ---      ---       board
      00FF0096H   PUBLIC    CODE     ---       EnableGlobalIRQ
      00FF4B98H   PUBLIC    CODE     ---       board_init
      00FF47C2H   PUBLIC    CODE     ---       set_clk
      00FF009EH   PUBLIC    CODE     ---       DisableGlobalIRQ
      000006B3H   PUBLIC    EDATA    LONG      sys_clk
      000000F2H   SFRSYM    DATA     BYTE      P0M0
      000000D0H   SFRSYM    DATA     BYTE      PSW
      000000A9H   SFRSYM    DATA     BYTE      IRCBAND
      000000BCH   SFRSYM    DATA     BYTE      S4CON
      000000E5H   SFRSYM    DATA     BYTE      S3CON
      000000E3H   SFRSYM    DATA     BYTE      S2CON
      0000009FH   SFRSYM    DATA     BYTE      IRTRIM
      00000092H   SFRSYM    DATA     BYTE      WTST
      000000FFH   SFRSYM    DATA     BYTE      RSTCFG
      00000093H   SFRSYM    DATA     BYTE      AUXR
      000000E7H   SFRSYM    DATA     BYTE      IE2
      00000088H   SFRSYM    DATA     BYTE      TCON
      00000089H   SFRSYM    DATA     BYTE      TMOD
      00000098H   SFRSYM    DATA     BYTE      SCON
      0000009EH   SFRSYM    DATA     BYTE      LIRTRIM
      000000DFH   SFRSYM    DATA     BYTE      ADCCFG
      000000B8H   SFRSYM    DATA     BYTE      IP
      000000A8H   SFRSYM    DATA     BYTE      IE
      0000009BH   SFRSYM    DATA     BYTE      P_SW2
      0000009AH   SFRSYM    DATA     BYTE      P_SW1
      000000F8H   SFRSYM    DATA     BYTE      P7
      000000A8H.7 SFRSYM    DATA     BIT       EA
      000000D2H   SFRSYM    DATA     BYTE      P7M1
      000000E8H   SFRSYM    DATA     BYTE      P6
      000000C8H   SFRSYM    DATA     BYTE      P5
      000000D3H   SFRSYM    DATA     BYTE      P7M0
      000000EEH   SFRSYM    DATA     BYTE      P6M1
      000000C0H   SFRSYM    DATA     BYTE      P4
      000000ECH   SFRSYM    DATA     BYTE      P5M1
      000000EFH   SFRSYM    DATA     BYTE      P6M0
      000000B0H   SFRSYM    DATA     BYTE      P3
      000000EDH   SFRSYM    DATA     BYTE      P5M0
      000000FBH   SFRSYM    DATA     BYTE      P4M1
      000000A0H   SFRSYM    DATA     BYTE      P2
      000000F9H   SFRSYM    DATA     BYTE      P3M1
      000000FCH   SFRSYM    DATA     BYTE      P4M0
      00000090H   SFRSYM    DATA     BYTE      P1
      000000F5H   SFRSYM    DATA     BYTE      P2M1
      000000FAH   SFRSYM    DATA     BYTE      P3M0
      00000080H   SFRSYM    DATA     BYTE      P0
      000000F3H   SFRSYM    DATA     BYTE      P1M1
      000000F6H   SFRSYM    DATA     BYTE      P2M0
      000000F1H   SFRSYM    DATA     BYTE      P0M1
      000000F4H   SFRSYM    DATA     BYTE      P1M0

      00FF47C2H   BLOCK     CODE     ---       LVL=0
      DR8         REGSYM    ---      DWORD     clk
      00FF47C2H   LINE      CODE     ---       #36
      00FF47C4H   LINE      CODE     ---       #38
      00FF47D0H   LINE      CODE     ---       #40
      00FF47D3H   LINE      CODE     ---       #41
      00FF47D6H   LINE      CODE     ---       #42
      00FF47D9H   LINE      CODE     ---       #43
      00FF47D9H   LINE      CODE     ---       #44
      00FF47DCH   LINE      CODE     ---       #45
      00FF47E8H   LINE      CODE     ---       #47
      00FF47EBH   LINE      CODE     ---       #48
      00FF47EEH   LINE      CODE     ---       #49
L251 LINKER/LOCATER V4.66.93.0                                                        07/17/2022  02:20:12  PAGE 29


      00FF47F1H   LINE      CODE     ---       #50
      00FF47F1H   LINE      CODE     ---       #51
      00FF47F3H   LINE      CODE     ---       #52
      00FF47FFH   LINE      CODE     ---       #54
      00FF4802H   LINE      CODE     ---       #55
      00FF4805H   LINE      CODE     ---       #56
      00FF4808H   LINE      CODE     ---       #57
      00FF4808H   LINE      CODE     ---       #58
      00FF480AH   LINE      CODE     ---       #59
      00FF4816H   LINE      CODE     ---       #61
      00FF4819H   LINE      CODE     ---       #62
      00FF481CH   LINE      CODE     ---       #63
      00FF481FH   LINE      CODE     ---       #64
      00FF481FH   LINE      CODE     ---       #65
      00FF4821H   LINE      CODE     ---       #66
      00FF482DH   LINE      CODE     ---       #68
      00FF4830H   LINE      CODE     ---       #69
      00FF4833H   LINE      CODE     ---       #70
      00FF4836H   LINE      CODE     ---       #71
      00FF4836H   LINE      CODE     ---       #72
      00FF4838H   LINE      CODE     ---       #73
      00FF4844H   LINE      CODE     ---       #75
      00FF4847H   LINE      CODE     ---       #76
      00FF484AH   LINE      CODE     ---       #77
      00FF484DH   LINE      CODE     ---       #78
      00FF484DH   LINE      CODE     ---       #79
      00FF484FH   LINE      CODE     ---       #80
      00FF485BH   LINE      CODE     ---       #82
      00FF485EH   LINE      CODE     ---       #83
      00FF4861H   LINE      CODE     ---       #84
      00FF4864H   LINE      CODE     ---       #85
      00FF4864H   LINE      CODE     ---       #86
      00FF4866H   LINE      CODE     ---       #117
      00FF4869H   LINE      CODE     ---       #118
      00FF486CH   LINE      CODE     ---       #119
      00FF486FH   LINE      CODE     ---       #120
      00FF487BH   LINE      CODE     ---       #121
      00FF487BH   LINE      CODE     ---       #122
      ---         BLOCKEND  ---      ---       LVL=0
      DR28        REGSYM    ---      DWORD     temp_count

      00FF4B98H   BLOCK     CODE     ---       LVL=0
      00FF4B98H   LINE      CODE     ---       #177
      00FF4B98H   LINE      CODE     ---       #179
      00FF4B9BH   LINE      CODE     ---       #183
      00FF4BA7H   LINE      CODE     ---       #184
      00FF4BAAH   LINE      CODE     ---       #197
      00FF4BADH   LINE      CODE     ---       #199
      00FF4BB0H   LINE      CODE     ---       #200
      00FF4BB3H   LINE      CODE     ---       #201
      00FF4BBFH   LINE      CODE     ---       #203
      00FF4BC2H   LINE      CODE     ---       #204
      00FF4BC5H   LINE      CODE     ---       #205
      00FF4BC8H   LINE      CODE     ---       #206
      00FF4BCBH   LINE      CODE     ---       #207
      00FF4BCEH   LINE      CODE     ---       #208
      00FF4BD1H   LINE      CODE     ---       #209
      00FF4BD4H   LINE      CODE     ---       #210
      00FF4BD7H   LINE      CODE     ---       #211
      00FF4BDAH   LINE      CODE     ---       #212
      00FF4BDDH   LINE      CODE     ---       #213
      00FF4BE0H   LINE      CODE     ---       #214
      00FF4BE3H   LINE      CODE     ---       #215
      00FF4BE6H   LINE      CODE     ---       #216
      00FF4BE9H   LINE      CODE     ---       #217
L251 LINKER/LOCATER V4.66.93.0                                                        07/17/2022  02:20:12  PAGE 30


      00FF4BECH   LINE      CODE     ---       #218
      00FF4BEFH   LINE      CODE     ---       #220
      00FF4BF2H   LINE      CODE     ---       #221
      00FF4BF5H   LINE      CODE     ---       #222
      00FF4BF8H   LINE      CODE     ---       #223
      00FF4BFBH   LINE      CODE     ---       #224
      00FF4BFEH   LINE      CODE     ---       #225
      00FF4C01H   LINE      CODE     ---       #226
      00FF4C04H   LINE      CODE     ---       #227
      00FF4C07H   LINE      CODE     ---       #228
      00FF4C0AH   LINE      CODE     ---       #229
      00FF4C0DH   LINE      CODE     ---       #231
      ---         BLOCKEND  ---      ---       LVL=0
      R15         REGSYM    ---      CHAR      c

      00FF009EH   BLOCK     CODE     ---       LVL=0
      00FF009EH   LINE      CODE     ---       #245
      00FF009EH   LINE      CODE     ---       #247
      00FF00A0H   LINE      CODE     ---       #248
      ---         BLOCKEND  ---      ---       LVL=0

      00FF0096H   BLOCK     CODE     ---       LVL=0
      00FF0096H   LINE      CODE     ---       #251
      00FF0096H   LINE      CODE     ---       #253
      00FF0098H   LINE      CODE     ---       #254
      ---         BLOCKEND  ---      ---       LVL=0

      ---         MODULE    ---      ---       common
      000006BBH   PUBLIC    EDATA    INT       wireless_type
      000000D0H   SFRSYM    DATA     BYTE      PSW
      00000088H   SFRSYM    DATA     BYTE      TCON
      00000098H   SFRSYM    DATA     BYTE      SCON
      000000B8H   SFRSYM    DATA     BYTE      IP
      000000A8H   SFRSYM    DATA     BYTE      IE
      000000F8H   SFRSYM    DATA     BYTE      P7
      000000E8H   SFRSYM    DATA     BYTE      P6
      000000C8H   SFRSYM    DATA     BYTE      P5
      000000C0H   SFRSYM    DATA     BYTE      P4
      000000B0H   SFRSYM    DATA     BYTE      P3
      000000A0H   SFRSYM    DATA     BYTE      P2
      00000090H   SFRSYM    DATA     BYTE      P1
      00000080H   SFRSYM    DATA     BYTE      P0

      ---         MODULE    ---      ---       SEEKFREE_PRINTF
      000000D0H   SFRSYM    DATA     BYTE      PSW
      00000088H   SFRSYM    DATA     BYTE      TCON
      00000098H   SFRSYM    DATA     BYTE      SCON
      000000B8H   SFRSYM    DATA     BYTE      IP
      000000A8H   SFRSYM    DATA     BYTE      IE
      000000F8H   SFRSYM    DATA     BYTE      P7
      000000E8H   SFRSYM    DATA     BYTE      P6
      000000C8H   SFRSYM    DATA     BYTE      P5
      000000C0H   SFRSYM    DATA     BYTE      P4
      000000B0H   SFRSYM    DATA     BYTE      P3
      000000A0H   SFRSYM    DATA     BYTE      P2
      00000090H   SFRSYM    DATA     BYTE      P1
      00000080H   SFRSYM    DATA     BYTE      P0
      DR24        REGSYM    ---      DWORD     dat
      REG=7       REGSYM    ---      ---       p
      R10         REGSYM    ---      BYTE      neg_type
      DR20        REGSYM    ---      LONG      neg_dat
      DR24        REGSYM    ---      DWORD     pos_dat
      R14         REGSYM    ---      BYTE      temp_data
      R15         REGSYM    ---      BYTE      valid_num
      REG=7       REGSYM    ---      ---       d_buff
L251 LINKER/LOCATER V4.66.93.0                                                        07/17/2022  02:20:12  PAGE 31


      DR24        REGSYM    ---      DWORD     len
      DR4         REGSYM    ---      DWORD     i
      R3          REGSYM    ---      CHAR      temp_data
      REG=3       REGSYM    ---      ---       buff

      ---         MODULE    ---      ---       DFPMU_SP
      00FF55F1H   PUBLIC    CODE     ---       ?C?CASTF
      00FF55F7H   PUBLIC    CODE     ---       ?C?FCASTC
      00FF55FDH   PUBLIC    CODE     ---       ?C?FCASTI
      00FF005EH   PUBLIC    CODE     ---       ?C?FCASTL
      00FF0006H   PUBLIC    CODE     ---       ?C?FPADD
      00FF0046H   PUBLIC    CODE     ---       ?C?FPCMP3
      00FF001EH   PUBLIC    CODE     ---       ?C?FPDIV
      00FF0016H   PUBLIC    CODE     ---       ?C?FPMUL
      00FF55EAH   PUBLIC    CODE     ---       ?C?FPNEG
      00FF000EH   PUBLIC    CODE     ---       ?C?FPSUB
      00FF0056H   PUBLIC    CODE     ---       SQRT?_
      000000E0H   SFRSYM    DATA     BYTE      ACC
      0000008FH   SFRSYM    DATA     BYTE      DMAIR
      00000083H   SFRSYM    DATA     BYTE      DPH
      00000082H   SFRSYM    DATA     BYTE      DPL
      0000001CH   SYMBOL    NUMBER   ---       DMA_FPADD
      00000030H   SYMBOL    NUMBER   ---       DMA_FPATAN
      00000027H   SYMBOL    NUMBER   ---       DMA_FPCLD
      00000032H   SYMBOL    NUMBER   ---       DMA_FPCLEX
      00000021H   SYMBOL    NUMBER   ---       DMA_FPCMP
      0000002EH   SYMBOL    NUMBER   ---       DMA_FPCOS
      00000035H   SYMBOL    NUMBER   ---       DMA_FPCRR
      00000036H   SYMBOL    NUMBER   ---       DMA_FPCRW
      00000023H   SYMBOL    NUMBER   ---       DMA_FPCST
      0000001FH   SYMBOL    NUMBER   ---       DMA_FPDIV
      00000028H   SYMBOL    NUMBER   ---       DMA_FPILD
      00000031H   SYMBOL    NUMBER   ---       DMA_FPINIT
      00000024H   SYMBOL    NUMBER   ---       DMA_FPIST
      00000029H   SYMBOL    NUMBER   ---       DMA_FPLLD
      00000025H   SYMBOL    NUMBER   ---       DMA_FPLST
      0000001EH   SYMBOL    NUMBER   ---       DMA_FPMUL
      0000002DH   SYMBOL    NUMBER   ---       DMA_FPSIN
      00000020H   SYMBOL    NUMBER   ---       DMA_FPSQRT
      00000033H   SYMBOL    NUMBER   ---       DMA_FPSRR
      00000034H   SYMBOL    NUMBER   ---       DMA_FPSRW
      0000001DH   SYMBOL    NUMBER   ---       DMA_FPSUB
      0000002FH   SYMBOL    NUMBER   ---       DMA_FPTAN
      00000022H   SYMBOL    NUMBER   ---       DMA_FPXAM
      00000001H   SYMBOL    NUMBER   ---       FP_CONV_EN
      00000001H   SYMBOL    NUMBER   ---       FP_REGS_EN
      00000001H   SYMBOL    NUMBER   ---       FP_TRIG_EN

      00FF0006H   BLOCK     CODE     NEAR LAB  LVL=0
      00FF0006H   LINE      CODE     ---       #128
      00FF0009H   LINE      CODE     ---       #129
      ---         BLOCKEND  ---      ---       LVL=0

      00FF000EH   BLOCK     CODE     NEAR LAB  LVL=0
      00FF000EH   LINE      CODE     ---       #138
      00FF0011H   LINE      CODE     ---       #139
      ---         BLOCKEND  ---      ---       LVL=0

      00FF0016H   BLOCK     CODE     NEAR LAB  LVL=0
      00FF0016H   LINE      CODE     ---       #148
      00FF0019H   LINE      CODE     ---       #149
      ---         BLOCKEND  ---      ---       LVL=0

      00FF001EH   BLOCK     CODE     NEAR LAB  LVL=0
      00FF001EH   LINE      CODE     ---       #158
L251 LINKER/LOCATER V4.66.93.0                                                        07/17/2022  02:20:12  PAGE 32


      00FF0021H   LINE      CODE     ---       #159
      ---         BLOCKEND  ---      ---       LVL=0

      00FF0056H   BLOCK     CODE     NEAR LAB  LVL=0
      00FF0056H   LINE      CODE     ---       #168
      00FF0059H   LINE      CODE     ---       #169
      ---         BLOCKEND  ---      ---       LVL=0

      00FF0046H   BLOCK     CODE     NEAR LAB  LVL=0
      00FF0046H   LINE      CODE     ---       #179
      00FF0049H   LINE      CODE     ---       #180
      00FF004BH   LINE      CODE     ---       #181
      00FF004DH   LINE      CODE     ---       #182
      00FF004FH   LINE      CODE     ---       #183
      00FF0051H   LINE      CODE     ---       #184
      ---         BLOCKEND  ---      ---       LVL=0

      00FF55EAH   BLOCK     CODE     NEAR LAB  LVL=0
      00FF55EAH   LINE      CODE     ---       #204
      00FF55ECH   LINE      CODE     ---       #205
      00FF55EEH   LINE      CODE     ---       #206
      00FF55F0H   LINE      CODE     ---       #207
      ---         BLOCKEND  ---      ---       LVL=0

      00FF55F1H   BLOCK     CODE     NEAR LAB  LVL=0
      00FF55F1H   LINE      CODE     ---       #279
      00FF55F4H   LINE      CODE     ---       #280
      00FF55F6H   LINE      CODE     ---       #281
      ---         BLOCKEND  ---      ---       LVL=0

      00FF55F7H   BLOCK     CODE     NEAR LAB  LVL=0
      00FF55F7H   LINE      CODE     ---       #290
      00FF55F9H   LINE      CODE     ---       #291
      00FF55FCH   LINE      CODE     ---       #292
      ---         BLOCKEND  ---      ---       LVL=0

      00FF55FDH   BLOCK     CODE     NEAR LAB  LVL=0
      00FF55FDH   LINE      CODE     ---       #301
      00FF55FFH   LINE      CODE     ---       #302
      00FF5602H   LINE      CODE     ---       #303
      ---         BLOCKEND  ---      ---       LVL=0

      00FF005EH   BLOCK     CODE     NEAR LAB  LVL=0
      00FF005EH   LINE      CODE     ---       #312
      00FF0061H   LINE      CODE     ---       #313
      ---         BLOCKEND  ---      ---       LVL=0

      ---         MODULE    ---      ---       STC_MDU32
      00FF008EH   PUBLIC    CODE     ---       ?C?SLDIV
      00FF007FH   PUBLIC    CODE     ---       ?C?ULDIV
      00FF0086H   PUBLIC    CODE     ---       ?C?ULIDIV
      0000008FH   SFRSYM    DATA     BYTE      DMAIR

      00FF007FH   BLOCK     CODE     NEAR LAB  LVL=0
      00FF007FH   LINE      CODE     ---       #26
      00FF0082H   LINE      CODE     ---       #27
      ---         BLOCKEND  ---      ---       LVL=0

      00FF0086H   BLOCK     CODE     NEAR LAB  LVL=0
      00FF0086H   LINE      CODE     ---       #36
      00FF0089H   LINE      CODE     ---       #37
      ---         BLOCKEND  ---      ---       LVL=0

      00FF008EH   BLOCK     CODE     NEAR LAB  LVL=0
      00FF008EH   LINE      CODE     ---       #46
L251 LINKER/LOCATER V4.66.93.0                                                        07/17/2022  02:20:12  PAGE 33


      00FF0091H   LINE      CODE     ---       #47
      ---         BLOCKEND  ---      ---       LVL=0

      ---         MODULE    ---      ---       zf_adc
      00FF5321H   PUBLIC    CODE     ---       adc_once
      00FF4E68H   PUBLIC    CODE     ---       adc_init
      000000F2H   SFRSYM    DATA     BYTE      P0M0
      000000D0H   SFRSYM    DATA     BYTE      PSW
      000000DEH   SFRSYM    DATA     BYTE      ADC_RESL
      00000088H   SFRSYM    DATA     BYTE      TCON
      00000098H   SFRSYM    DATA     BYTE      SCON
      000000DCH   SFRSYM    DATA     BYTE      ADC_CONTR
      000000DFH   SFRSYM    DATA     BYTE      ADCCFG
      000000B8H   SFRSYM    DATA     BYTE      IP
      000000DDH   SFRSYM    DATA     BYTE      ADC_RES
      000000A8H   SFRSYM    DATA     BYTE      IE
      000000F8H   SFRSYM    DATA     BYTE      P7
      000000E8H   SFRSYM    DATA     BYTE      P6
      000000C8H   SFRSYM    DATA     BYTE      P5
      000000C0H   SFRSYM    DATA     BYTE      P4
      000000B0H   SFRSYM    DATA     BYTE      P3
      000000A0H   SFRSYM    DATA     BYTE      P2
      00000090H   SFRSYM    DATA     BYTE      P1
      00000080H   SFRSYM    DATA     BYTE      P0
      000000F3H   SFRSYM    DATA     BYTE      P1M1
      000000F1H   SFRSYM    DATA     BYTE      P0M1
      000000F4H   SFRSYM    DATA     BYTE      P1M0

      00FF4E68H   BLOCK     CODE     ---       LVL=0
      WR4         REGSYM    ---      INT       adcn
      WR2         REGSYM    ---      INT       speed
      00FF4E68H   LINE      CODE     ---       #32
      00FF4E6CH   LINE      CODE     ---       #34
      00FF4E6FH   LINE      CODE     ---       #36
      00FF4E72H   LINE      CODE     ---       #37
      00FF4E78H   LINE      CODE     ---       #39
      00FF4E84H   LINE      CODE     ---       #42
      00FF4E99H   LINE      CODE     ---       #43
      00FF4E9DH   LINE      CODE     ---       #44
      00FF4E9FH   LINE      CODE     ---       #45
      00FF4EA3H   LINE      CODE     ---       #48
      00FF4EB8H   LINE      CODE     ---       #49
      00FF4EBCH   LINE      CODE     ---       #50
      00FF4EBCH   LINE      CODE     ---       #52
      00FF4EC2H   LINE      CODE     ---       #54
      00FF4EC5H   LINE      CODE     ---       #55
      ---         BLOCKEND  ---      ---       LVL=0

      00FF5321H   BLOCK     CODE     ---       LVL=0
      WR6         REGSYM    ---      INT       adcn
      WR4         REGSYM    ---      INT       resolution
      WR6         REGSYM    ---      WORD      adc_value
      00FF5321H   LINE      CODE     ---       #66
      00FF5321H   LINE      CODE     ---       #67
      00FF5321H   LINE      CODE     ---       #70
      00FF5324H   LINE      CODE     ---       #71
      00FF5328H   LINE      CODE     ---       #73
      00FF532BH   LINE      CODE     ---       #74
      00FF5330H   LINE      CODE     ---       #75
      00FF5333H   LINE      CODE     ---       #77
      00FF5335H   LINE      CODE     ---       #78
      00FF5339H   LINE      CODE     ---       #79
      00FF533FH   LINE      CODE     ---       #81
      00FF5342H   LINE      CODE     ---       #82
      00FF5345H   LINE      CODE     ---       #84
L251 LINKER/LOCATER V4.66.93.0                                                        07/17/2022  02:20:12  PAGE 34


      00FF534EH   LINE      CODE     ---       #87
      00FF534EH   LINE      CODE     ---       #88
      ---         BLOCKEND  ---      ---       LVL=0

      ---         MODULE    ---      ---       zf_delay
      00FF51E9H   PUBLIC    CODE     ---       delay_init
      00FF5540H   PUBLIC    CODE     ---       delay_ms
      000006B7H   PUBLIC    EDATA    WORD      zf_delay_ms
      000006B9H   PUBLIC    EDATA    WORD      zf_delay_us
      000000D0H   SFRSYM    DATA     BYTE      PSW
      00000088H   SFRSYM    DATA     BYTE      TCON
      00000098H   SFRSYM    DATA     BYTE      SCON
      000000B8H   SFRSYM    DATA     BYTE      IP
      000000A8H   SFRSYM    DATA     BYTE      IE
      000000F8H   SFRSYM    DATA     BYTE      P7
      000000E8H   SFRSYM    DATA     BYTE      P6
      000000C8H   SFRSYM    DATA     BYTE      P5
      000000C0H   SFRSYM    DATA     BYTE      P4
      000000B0H   SFRSYM    DATA     BYTE      P3
      000000A0H   SFRSYM    DATA     BYTE      P2
      00000090H   SFRSYM    DATA     BYTE      P1
      00000080H   SFRSYM    DATA     BYTE      P0

      00FF51E9H   BLOCK     CODE     ---       LVL=0
      00FF51E9H   LINE      CODE     ---       #34
      00FF51E9H   LINE      CODE     ---       #36
      00FF51FAH   LINE      CODE     ---       #37
      00FF520BH   LINE      CODE     ---       #38
      00FF5221H   LINE      CODE     ---       #40
      ---         BLOCKEND  ---      ---       LVL=0

      00FF5540H   BLOCK     CODE     ---       LVL=0
      WR4         REGSYM    ---      WORD      ms
      00FF5542H   BLOCK     CODE     NEAR LAB  LVL=1
      WR6         REGSYM    ---      WORD      i
      ---         BLOCKEND  ---      ---       LVL=1
      00FF5540H   LINE      CODE     ---       #48
      00FF5542H   LINE      CODE     ---       #49
      00FF5542H   LINE      CODE     ---       #51
      00FF5542H   LINE      CODE     ---       #52
      00FF5546H   LINE      CODE     ---       #54
      00FF554EH   LINE      CODE     ---       #55
      00FF5556H   LINE      CODE     ---       #56
      ---         BLOCKEND  ---      ---       LVL=0
      DR0         REGSYM    ---      DWORD     us
      WR6         REGSYM    ---      WORD      i

      ---         MODULE    ---      ---       zf_exti
      000000D0H   SFRSYM    DATA     BYTE      PSW
      00000088H.2 SFRSYM    DATA     BIT       IT1
      000000A8H.2 SFRSYM    DATA     BIT       EX1
      00000088H.0 SFRSYM    DATA     BIT       IT0
      000000A8H.0 SFRSYM    DATA     BIT       EX0
      00000088H   SFRSYM    DATA     BYTE      TCON
      00000098H   SFRSYM    DATA     BYTE      SCON
      000000B8H   SFRSYM    DATA     BYTE      IP
      00000095H   SFRSYM    DATA     BYTE      INTCLKO
      000000A8H   SFRSYM    DATA     BYTE      IE
      000000F8H   SFRSYM    DATA     BYTE      P7
      000000E8H   SFRSYM    DATA     BYTE      P6
      000000C8H   SFRSYM    DATA     BYTE      P5
      000000C0H   SFRSYM    DATA     BYTE      P4
      000000B0H   SFRSYM    DATA     BYTE      P3
      000000A0H   SFRSYM    DATA     BYTE      P2
      00000090H   SFRSYM    DATA     BYTE      P1
L251 LINKER/LOCATER V4.66.93.0                                                        07/17/2022  02:20:12  PAGE 35


      00000080H   SFRSYM    DATA     BYTE      P0
      WR4         REGSYM    ---      INT       int_n
      WR2         REGSYM    ---      INT       mode

      ---         MODULE    ---      ---       zf_gpio
      00FF1E28H   PUBLIC    CODE     ---       gpio_mode
      000000F2H   SFRSYM    DATA     BYTE      P0M0
      000000D0H   SFRSYM    DATA     BYTE      PSW
      00000088H   SFRSYM    DATA     BYTE      TCON
      00000098H   SFRSYM    DATA     BYTE      SCON
      000000B8H   SFRSYM    DATA     BYTE      IP
      000000A8H   SFRSYM    DATA     BYTE      IE
      000000F8H   SFRSYM    DATA     BYTE      P7
      000000D2H   SFRSYM    DATA     BYTE      P7M1
      000000E8H   SFRSYM    DATA     BYTE      P6
      000000C8H   SFRSYM    DATA     BYTE      P5
      000000D3H   SFRSYM    DATA     BYTE      P7M0
      000000EEH   SFRSYM    DATA     BYTE      P6M1
      000000C0H   SFRSYM    DATA     BYTE      P4
      000000ECH   SFRSYM    DATA     BYTE      P5M1
      000000EFH   SFRSYM    DATA     BYTE      P6M0
      000000B0H   SFRSYM    DATA     BYTE      P3
      000000EDH   SFRSYM    DATA     BYTE      P5M0
      000000FBH   SFRSYM    DATA     BYTE      P4M1
      000000A0H   SFRSYM    DATA     BYTE      P2
      000000F9H   SFRSYM    DATA     BYTE      P3M1
      000000FCH   SFRSYM    DATA     BYTE      P4M0
      00000090H   SFRSYM    DATA     BYTE      P1
      000000F5H   SFRSYM    DATA     BYTE      P2M1
      000000FAH   SFRSYM    DATA     BYTE      P3M0
      00000080H   SFRSYM    DATA     BYTE      P0
      000000F3H   SFRSYM    DATA     BYTE      P1M1
      000000F6H   SFRSYM    DATA     BYTE      P2M0
      000000F1H   SFRSYM    DATA     BYTE      P0M1
      000000F4H   SFRSYM    DATA     BYTE      P1M0
      WR4         REGSYM    ---      INT       pin
      WR2         REGSYM    ---      INT       pull

      00FF1E28H   BLOCK     CODE     ---       LVL=0
      WR4         REGSYM    ---      INT       pin
      WR2         REGSYM    ---      INT       mode
      00FF1E28H   LINE      CODE     ---       #54
      00FF1E2CH   LINE      CODE     ---       #56
      00FF1E33H   LINE      CODE     ---       #58
      00FF1E3BH   LINE      CODE     ---       #60
      00FF1E53H   LINE      CODE     ---       #61
      00FF1E55H   LINE      CODE     ---       #62
      00FF1E55H   LINE      CODE     ---       #63
      00FF1E5BH   LINE      CODE     ---       #65
      00FF1E73H   LINE      CODE     ---       #66
      00FF1E75H   LINE      CODE     ---       #67
      00FF1E75H   LINE      CODE     ---       #68
      00FF1E7BH   LINE      CODE     ---       #70
      00FF1E93H   LINE      CODE     ---       #71
      00FF1E95H   LINE      CODE     ---       #72
      00FF1E95H   LINE      CODE     ---       #74
      00FF1E9BH   LINE      CODE     ---       #76
      00FF1EB3H   LINE      CODE     ---       #77
      00FF1EB5H   LINE      CODE     ---       #78
      00FF1EB5H   LINE      CODE     ---       #79
      00FF1EBBH   LINE      CODE     ---       #81
      00FF1ED3H   LINE      CODE     ---       #82
      00FF1ED5H   LINE      CODE     ---       #83
      00FF1ED5H   LINE      CODE     ---       #84
      00FF1EDBH   LINE      CODE     ---       #86
L251 LINKER/LOCATER V4.66.93.0                                                        07/17/2022  02:20:12  PAGE 36


      00FF1EF3H   LINE      CODE     ---       #87
      00FF1EF5H   LINE      CODE     ---       #88
      00FF1EF5H   LINE      CODE     ---       #89
      00FF1EFBH   LINE      CODE     ---       #91
      00FF1F13H   LINE      CODE     ---       #92
      00FF1F15H   LINE      CODE     ---       #93
      00FF1F15H   LINE      CODE     ---       #94
      00FF1F1EH   LINE      CODE     ---       #96
      00FF1F36H   LINE      CODE     ---       #97
      00FF1F38H   LINE      CODE     ---       #98
      00FF1F39H   LINE      CODE     ---       #100
      00FF1F42H   LINE      CODE     ---       #102
      00FF1F4AH   LINE      CODE     ---       #104
      00FF1F5FH   LINE      CODE     ---       #105
      00FF1F63H   LINE      CODE     ---       #106
      00FF1F63H   LINE      CODE     ---       #107
      00FF1F69H   LINE      CODE     ---       #109
      00FF1F7EH   LINE      CODE     ---       #110
      00FF1F82H   LINE      CODE     ---       #111
      00FF1F82H   LINE      CODE     ---       #112
      00FF1F88H   LINE      CODE     ---       #114
      00FF1F9DH   LINE      CODE     ---       #115
      00FF1FA1H   LINE      CODE     ---       #116
      00FF1FA1H   LINE      CODE     ---       #118
      00FF1FA7H   LINE      CODE     ---       #120
      00FF1FBCH   LINE      CODE     ---       #121
      00FF1FC0H   LINE      CODE     ---       #122
      00FF1FC0H   LINE      CODE     ---       #123
      00FF1FC6H   LINE      CODE     ---       #125
      00FF1FDBH   LINE      CODE     ---       #126
      00FF1FDFH   LINE      CODE     ---       #127
      00FF1FDFH   LINE      CODE     ---       #128
      00FF1FE5H   LINE      CODE     ---       #130
      00FF1FFAH   LINE      CODE     ---       #131
      00FF1FFEH   LINE      CODE     ---       #132
      00FF1FFEH   LINE      CODE     ---       #133
      00FF2004H   LINE      CODE     ---       #135
      00FF2019H   LINE      CODE     ---       #136
      00FF201DH   LINE      CODE     ---       #137
      00FF201DH   LINE      CODE     ---       #138
      00FF2026H   LINE      CODE     ---       #140
      00FF203DH   LINE      CODE     ---       #141
      00FF203DH   LINE      CODE     ---       #142
      00FF2040H   LINE      CODE     ---       #145
      00FF2049H   LINE      CODE     ---       #147
      00FF2051H   LINE      CODE     ---       #149
      00FF2064H   LINE      CODE     ---       #150
      00FF2068H   LINE      CODE     ---       #151
      00FF2068H   LINE      CODE     ---       #152
      00FF206EH   LINE      CODE     ---       #154
      00FF2081H   LINE      CODE     ---       #155
      00FF2085H   LINE      CODE     ---       #156
      00FF2085H   LINE      CODE     ---       #157
      00FF208BH   LINE      CODE     ---       #159
      00FF209EH   LINE      CODE     ---       #160
      00FF20A2H   LINE      CODE     ---       #161
      00FF20A2H   LINE      CODE     ---       #163
      00FF20A8H   LINE      CODE     ---       #165
      00FF20BBH   LINE      CODE     ---       #166
      00FF20BFH   LINE      CODE     ---       #167
      00FF20BFH   LINE      CODE     ---       #168
      00FF20C5H   LINE      CODE     ---       #170
      00FF20D8H   LINE      CODE     ---       #171
      00FF20DCH   LINE      CODE     ---       #172
      00FF20DCH   LINE      CODE     ---       #173
L251 LINKER/LOCATER V4.66.93.0                                                        07/17/2022  02:20:12  PAGE 37


      00FF20E2H   LINE      CODE     ---       #175
      00FF20F5H   LINE      CODE     ---       #176
      00FF20F9H   LINE      CODE     ---       #177
      00FF20F9H   LINE      CODE     ---       #178
      00FF20FFH   LINE      CODE     ---       #180
      00FF2112H   LINE      CODE     ---       #181
      00FF2116H   LINE      CODE     ---       #182
      00FF2116H   LINE      CODE     ---       #183
      00FF211FH   LINE      CODE     ---       #185
      00FF2132H   LINE      CODE     ---       #186
      00FF2136H   LINE      CODE     ---       #187
      00FF2137H   LINE      CODE     ---       #189
      00FF2140H   LINE      CODE     ---       #191
      00FF2148H   LINE      CODE     ---       #193
      00FF215BH   LINE      CODE     ---       #194
      00FF215DH   LINE      CODE     ---       #195
      00FF215DH   LINE      CODE     ---       #196
      00FF2163H   LINE      CODE     ---       #198
      00FF2176H   LINE      CODE     ---       #199
      00FF2178H   LINE      CODE     ---       #200
      00FF2178H   LINE      CODE     ---       #201
      00FF217EH   LINE      CODE     ---       #203
      00FF2191H   LINE      CODE     ---       #204
      00FF2193H   LINE      CODE     ---       #205
      00FF2193H   LINE      CODE     ---       #207
      00FF2199H   LINE      CODE     ---       #209
      00FF21ACH   LINE      CODE     ---       #210
      00FF21AEH   LINE      CODE     ---       #211
      00FF21AEH   LINE      CODE     ---       #212
      00FF21B4H   LINE      CODE     ---       #214
      00FF21C7H   LINE      CODE     ---       #215
      00FF21C9H   LINE      CODE     ---       #216
      00FF21C9H   LINE      CODE     ---       #217
      00FF21CFH   LINE      CODE     ---       #219
      00FF21E2H   LINE      CODE     ---       #220
      00FF21E4H   LINE      CODE     ---       #221
      00FF21E4H   LINE      CODE     ---       #222
      00FF21EAH   LINE      CODE     ---       #224
      00FF21FDH   LINE      CODE     ---       #225
      00FF21FFH   LINE      CODE     ---       #226
      00FF21FFH   LINE      CODE     ---       #227
      00FF2205H   LINE      CODE     ---       #229
      00FF221AH   LINE      CODE     ---       #230
      00FF221EH   LINE      CODE     ---       #231
      00FF221EH   LINE      CODE     ---       #233
      ---         BLOCKEND  ---      ---       LVL=0

      ---         MODULE    ---      ---       zf_iic
      000000D0H   SFRSYM    DATA     BYTE      PSW
      00000088H   SFRSYM    DATA     BYTE      TCON
      00000098H   SFRSYM    DATA     BYTE      SCON
      000000B8H   SFRSYM    DATA     BYTE      IP
      000000A8H   SFRSYM    DATA     BYTE      IE
      0000009BH   SFRSYM    DATA     BYTE      P_SW2
      000000F8H   SFRSYM    DATA     BYTE      P7
      000000E8H   SFRSYM    DATA     BYTE      P6
      000000C8H   SFRSYM    DATA     BYTE      P5
      000000C0H   SFRSYM    DATA     BYTE      P4
      000000B0H   SFRSYM    DATA     BYTE      P3
      000000A0H   SFRSYM    DATA     BYTE      P2
      00000090H   SFRSYM    DATA     BYTE      P1
      00000080H   SFRSYM    DATA     BYTE      P0
      WR6         REGSYM    ---      WORD      x
      R10         REGSYM    ---      BYTE      i
      WR12        REGSYM    ---      WORD      count
L251 LINKER/LOCATER V4.66.93.0                                                        07/17/2022  02:20:12  PAGE 38


      R15         REGSYM    ---      BYTE      ret
      R11         REGSYM    ---      BYTE      ret
      R11         REGSYM    ---      CHAR      dat
      R11         REGSYM    ---      BYTE      ret
      R11         REGSYM    ---      BYTE      ret
      R11         REGSYM    ---      BYTE      ret
      R11         REGSYM    ---      BYTE      ret
      WR6         REGSYM    ---      INT       iic_n
      R13         REGSYM    ---      BYTE      dev_add
      R14         REGSYM    ---      BYTE      reg
      R15         REGSYM    ---      BYTE      dat
      R15         REGSYM    ---      BYTE      dev_add
      R14         REGSYM    ---      BYTE      reg
      REG=3       REGSYM    ---      ---       dat
      WR6         REGSYM    ---      INT       iic_n

      ---         MODULE    ---      ---       zf_nvic
      000000D0H   SFRSYM    DATA     BYTE      PSW
      000000B7H   SFRSYM    DATA     BYTE      IPH
      000000FEH   SFRSYM    DATA     BYTE      IP2
      00000088H   SFRSYM    DATA     BYTE      TCON
      00000098H   SFRSYM    DATA     BYTE      SCON
      000000B8H   SFRSYM    DATA     BYTE      IP
      000000B6H   SFRSYM    DATA     BYTE      IP2H
      000000A8H   SFRSYM    DATA     BYTE      IE
      000000F8H   SFRSYM    DATA     BYTE      P7
      000000E8H   SFRSYM    DATA     BYTE      P6
      000000C8H   SFRSYM    DATA     BYTE      P5
      000000C0H   SFRSYM    DATA     BYTE      P4
      000000B0H   SFRSYM    DATA     BYTE      P3
      000000A0H   SFRSYM    DATA     BYTE      P2
      00000090H   SFRSYM    DATA     BYTE      P1
      00000080H   SFRSYM    DATA     BYTE      P0
      WR4         REGSYM    ---      INT       irqn
      R3          REGSYM    ---      BYTE      priority

      ---         MODULE    ---      ---       zf_pwm
      00FF487CH   PUBLIC    CODE     ---       pwm_duty
      00FF32A5H   PUBLIC    CODE     ---       pwm_set_gpio
      00FF2FC1H   PUBLIC    CODE     ---       pwm_init
      00FF617FH   PUBLIC    HCONST   ---       PWM_CCR_ADDR
      00FF619FH   PUBLIC    HCONST   ---       PWM_ARR_ADDR
      00FF61A7H   PUBLIC    HCONST   ---       PWM_CCER_ADDR
      00FF61B7H   PUBLIC    HCONST   ---       PWM_CCMR_ADDR
      000005A9H   PUBLIC    EDATA    ---       ?pwm_init?BYTE
      000000D0H   SFRSYM    DATA     BYTE      PSW
      00000088H   SFRSYM    DATA     BYTE      TCON
      00000098H   SFRSYM    DATA     BYTE      SCON
      000000B8H   SFRSYM    DATA     BYTE      IP
      000000A8H   SFRSYM    DATA     BYTE      IE
      0000009BH   SFRSYM    DATA     BYTE      P_SW2
      000000F8H   SFRSYM    DATA     BYTE      P7
      000000E8H   SFRSYM    DATA     BYTE      P6
      000000C8H   SFRSYM    DATA     BYTE      P5
      000000C0H   SFRSYM    DATA     BYTE      P4
      000000B0H   SFRSYM    DATA     BYTE      P3
      000000A0H   SFRSYM    DATA     BYTE      P2
      00000090H   SFRSYM    DATA     BYTE      P1
      00000080H   SFRSYM    DATA     BYTE      P0

      00FF32A5H   BLOCK     CODE     ---       LVL=0
      WR6         REGSYM    ---      INT       pwmch
      00FF32A5H   LINE      CODE     ---       #49
      00FF32A5H   LINE      CODE     ---       #51
      00FF3418H   LINE      CODE     ---       #53
L251 LINKER/LOCATER V4.66.93.0                                                        07/17/2022  02:20:12  PAGE 39


      00FF3418H   LINE      CODE     ---       #55
      00FF341CH   LINE      CODE     ---       #56
      00FF341FH   LINE      CODE     ---       #58
      00FF341FH   LINE      CODE     ---       #60
      00FF3423H   LINE      CODE     ---       #61
      00FF3426H   LINE      CODE     ---       #63
      00FF3426H   LINE      CODE     ---       #65
      00FF342AH   LINE      CODE     ---       #66
      00FF342DH   LINE      CODE     ---       #68
      00FF342DH   LINE      CODE     ---       #70
      00FF3431H   LINE      CODE     ---       #71
      00FF3434H   LINE      CODE     ---       #73
      00FF3434H   LINE      CODE     ---       #75
      00FF3438H   LINE      CODE     ---       #76
      00FF343BH   LINE      CODE     ---       #78
      00FF343BH   LINE      CODE     ---       #80
      00FF343FH   LINE      CODE     ---       #81
      00FF3442H   LINE      CODE     ---       #84
      00FF3442H   LINE      CODE     ---       #86
      00FF3446H   LINE      CODE     ---       #87
      00FF3449H   LINE      CODE     ---       #89
      00FF3449H   LINE      CODE     ---       #91
      00FF344DH   LINE      CODE     ---       #92
      00FF3450H   LINE      CODE     ---       #94
      00FF3450H   LINE      CODE     ---       #96
      00FF3454H   LINE      CODE     ---       #97
      00FF3457H   LINE      CODE     ---       #99
      00FF3457H   LINE      CODE     ---       #101
      00FF345BH   LINE      CODE     ---       #102
      00FF345EH   LINE      CODE     ---       #104
      00FF345EH   LINE      CODE     ---       #106
      00FF3462H   LINE      CODE     ---       #107
      00FF3465H   LINE      CODE     ---       #109
      00FF3465H   LINE      CODE     ---       #111
      00FF3469H   LINE      CODE     ---       #112
      00FF346CH   LINE      CODE     ---       #115
      00FF346CH   LINE      CODE     ---       #117
      00FF3470H   LINE      CODE     ---       #118
      00FF3472H   LINE      CODE     ---       #120
      00FF3472H   LINE      CODE     ---       #122
      00FF3476H   LINE      CODE     ---       #123
      00FF3478H   LINE      CODE     ---       #125
      00FF3478H   LINE      CODE     ---       #127
      00FF347CH   LINE      CODE     ---       #128
      00FF347EH   LINE      CODE     ---       #130
      00FF347EH   LINE      CODE     ---       #132
      00FF3482H   LINE      CODE     ---       #133
      00FF3484H   LINE      CODE     ---       #135
      00FF3484H   LINE      CODE     ---       #137
      00FF3488H   LINE      CODE     ---       #138
      00FF348AH   LINE      CODE     ---       #140
      00FF348AH   LINE      CODE     ---       #142
      00FF348EH   LINE      CODE     ---       #143
      00FF3490H   LINE      CODE     ---       #147
      00FF3490H   LINE      CODE     ---       #149
      00FF3494H   LINE      CODE     ---       #150
      00FF3496H   LINE      CODE     ---       #152
      00FF3496H   LINE      CODE     ---       #154
      00FF349AH   LINE      CODE     ---       #155
      00FF349CH   LINE      CODE     ---       #157
      00FF349CH   LINE      CODE     ---       #159
      00FF34A0H   LINE      CODE     ---       #160
      00FF34A2H   LINE      CODE     ---       #162
      00FF34A2H   LINE      CODE     ---       #164
      00FF34A6H   LINE      CODE     ---       #165
L251 LINKER/LOCATER V4.66.93.0                                                        07/17/2022  02:20:12  PAGE 40


      00FF34A8H   LINE      CODE     ---       #167
      00FF34A8H   LINE      CODE     ---       #169
      00FF34ACH   LINE      CODE     ---       #170
      00FF34AEH   LINE      CODE     ---       #172
      00FF34AEH   LINE      CODE     ---       #174
      00FF34B2H   LINE      CODE     ---       #175
      00FF34B4H   LINE      CODE     ---       #177
      00FF34B4H   LINE      CODE     ---       #179
      00FF34B8H   LINE      CODE     ---       #180
      00FF34BAH   LINE      CODE     ---       #182
      00FF34BAH   LINE      CODE     ---       #184
      00FF34BEH   LINE      CODE     ---       #185
      00FF34C0H   LINE      CODE     ---       #189
      00FF34C0H   LINE      CODE     ---       #191
      00FF34C4H   LINE      CODE     ---       #192
      00FF34C6H   LINE      CODE     ---       #194
      00FF34C6H   LINE      CODE     ---       #196
      00FF34CAH   LINE      CODE     ---       #197
      00FF34CCH   LINE      CODE     ---       #199
      00FF34CCH   LINE      CODE     ---       #201
      00FF34CEH   LINE      CODE     ---       #202
      00FF34D0H   LINE      CODE     ---       #204
      00FF34D0H   LINE      CODE     ---       #206
      00FF34D4H   LINE      CODE     ---       #207
      00FF34D6H   LINE      CODE     ---       #210
      00FF34D6H   LINE      CODE     ---       #212
      00FF34DAH   LINE      CODE     ---       #213
      00FF34DCH   LINE      CODE     ---       #215
      00FF34DCH   LINE      CODE     ---       #217
      00FF34E0H   LINE      CODE     ---       #218
      00FF34E2H   LINE      CODE     ---       #220
      00FF34E2H   LINE      CODE     ---       #222
      00FF34E8H   LINE      CODE     ---       #223
      00FF34EAH   LINE      CODE     ---       #225
      00FF34EAH   LINE      CODE     ---       #227
      00FF34F2H   LINE      CODE     ---       #228
      00FF34F4H   LINE      CODE     ---       #232
      00FF34F4H   LINE      CODE     ---       #234
      00FF34FCH   LINE      CODE     ---       #235
      00FF34FEH   LINE      CODE     ---       #237
      00FF34FEH   LINE      CODE     ---       #239
      00FF3506H   LINE      CODE     ---       #240
      00FF3508H   LINE      CODE     ---       #242
      00FF3508H   LINE      CODE     ---       #244
      00FF3510H   LINE      CODE     ---       #245
      00FF3512H   LINE      CODE     ---       #247
      00FF3512H   LINE      CODE     ---       #249
      00FF351AH   LINE      CODE     ---       #250
      00FF351CH   LINE      CODE     ---       #254
      00FF351CH   LINE      CODE     ---       #256
      00FF3524H   LINE      CODE     ---       #257
      00FF3526H   LINE      CODE     ---       #259
      00FF3526H   LINE      CODE     ---       #261
      00FF352EH   LINE      CODE     ---       #262
      00FF3530H   LINE      CODE     ---       #264
      00FF3530H   LINE      CODE     ---       #266
      00FF3538H   LINE      CODE     ---       #267
      00FF353AH   LINE      CODE     ---       #269
      00FF353AH   LINE      CODE     ---       #271
      00FF3545H   LINE      CODE     ---       #272
      00FF3545H   LINE      CODE     ---       #275
      00FF3545H   LINE      CODE     ---       #277
      ---         BLOCKEND  ---      ---       LVL=0

      00FF2FC1H   BLOCK     CODE     ---       LVL=0
L251 LINKER/LOCATER V4.66.93.0                                                        07/17/2022  02:20:12  PAGE 41


      WR14        REGSYM    ---      INT       pwmch
      000005ABH   SYMBOL    EDATA    DWORD     freq
      000005AFH   SYMBOL    EDATA    DWORD     duty
      00FF2FC9H   BLOCK     CODE     NEAR LAB  LVL=1
      DR4         REGSYM    ---      DWORD     match_temp
      DR28        REGSYM    ---      DWORD     period_temp
      WR26        REGSYM    ---      WORD      freq_div
      ---         BLOCKEND  ---      ---       LVL=1
      00FF2FC1H   LINE      CODE     ---       #290
      00FF2FC9H   LINE      CODE     ---       #291
      00FF2FC9H   LINE      CODE     ---       #295
      00FF2FC9H   LINE      CODE     ---       #298
      00FF2FCCH   LINE      CODE     ---       #301
      00FF2FCFH   LINE      CODE     ---       #305
      00FF2FE0H   LINE      CODE     ---       #306
      00FF2FE0H   LINE      CODE     ---       #307
      00FF2FE9H   LINE      CODE     ---       #309
      00FF300AH   LINE      CODE     ---       #312
      00FF3013H   LINE      CODE     ---       #315
      00FF303EH   LINE      CODE     ---       #316
      00FF305FH   LINE      CODE     ---       #319
      00FF30ABH   LINE      CODE     ---       #322
      00FF30BAH   LINE      CODE     ---       #323
      00FF30C5H   LINE      CODE     ---       #325
      00FF30CEH   LINE      CODE     ---       #326
      00FF30D4H   LINE      CODE     ---       #327
      00FF30D7H   LINE      CODE     ---       #330
      00FF310FH   LINE      CODE     ---       #331
      00FF3132H   LINE      CODE     ---       #334
      00FF3184H   LINE      CODE     ---       #338
      00FF3193H   LINE      CODE     ---       #339
      00FF319EH   LINE      CODE     ---       #341
      00FF31A7H   LINE      CODE     ---       #342
      00FF31B4H   LINE      CODE     ---       #343
      00FF31B4H   LINE      CODE     ---       #346
      00FF31E0H   LINE      CODE     ---       #347
      00FF320EH   LINE      CODE     ---       #350
      00FF3234H   LINE      CODE     ---       #351
      00FF3260H   LINE      CODE     ---       #354
      00FF3277H   LINE      CODE     ---       #355
      00FF32A2H   LINE      CODE     ---       #360
      ---         BLOCKEND  ---      ---       LVL=0

      00FF487CH   BLOCK     CODE     ---       LVL=0
      WR30        REGSYM    ---      INT       pwmch
      DR24        REGSYM    ---      DWORD     duty
      00FF4880H   BLOCK     CODE     NEAR LAB  LVL=1
      DR0         REGSYM    ---      DWORD     match_temp
      DR20        REGSYM    ---      DWORD     arr
      ---         BLOCKEND  ---      ---       LVL=1
      00FF487CH   LINE      CODE     ---       #370
      00FF4880H   LINE      CODE     ---       #371
      00FF4880H   LINE      CODE     ---       #373
      00FF48C4H   LINE      CODE     ---       #377
      00FF48E5H   LINE      CODE     ---       #381
      00FF490BH   LINE      CODE     ---       #382
      00FF4933H   LINE      CODE     ---       #386
      ---         BLOCKEND  ---      ---       LVL=0
      WR30        REGSYM    ---      INT       pwmch
      DR24        REGSYM    ---      DWORD     freq
      DR0         REGSYM    ---      DWORD     match_temp
      DR24        REGSYM    ---      DWORD     period_temp
      WR28        REGSYM    ---      WORD      freq_div

      ---         MODULE    ---      ---       zf_spi
L251 LINKER/LOCATER V4.66.93.0                                                        07/17/2022  02:20:12  PAGE 42


      000000BBH   SFRSYM    DATA     BYTE      SPDAT
      000000D0H   SFRSYM    DATA     BYTE      PSW
      000000B9H   SFRSYM    DATA     BYTE      SPSTAT
      00000088H   SFRSYM    DATA     BYTE      TCON
      00000098H   SFRSYM    DATA     BYTE      SCON
      000000B8H   SFRSYM    DATA     BYTE      IP
      000000A8H   SFRSYM    DATA     BYTE      IE
      0000009AH   SFRSYM    DATA     BYTE      P_SW1
      000000BAH   SFRSYM    DATA     BYTE      SPCTL
      000000F8H   SFRSYM    DATA     BYTE      P7
      000000E8H   SFRSYM    DATA     BYTE      P6
      000000C8H   SFRSYM    DATA     BYTE      P5
      000000C0H   SFRSYM    DATA     BYTE      P4
      000000B0H   SFRSYM    DATA     BYTE      P3
      000000A0H   SFRSYM    DATA     BYTE      P2
      00000090H   SFRSYM    DATA     BYTE      P1
      00000080H   SFRSYM    DATA     BYTE      P0
      WR14        REGSYM    ---      INT       spi_n
      R13         REGSYM    ---      BYTE      mode
      R11         REGSYM    ---      BYTE      dat
      WR14        REGSYM    ---      INT       spi_n
      R7          REGSYM    ---      BYTE      mode

      ---         MODULE    ---      ---       zf_tim
      00FF4D34H   PUBLIC    CODE     ---       ctimer_count_read
      00FF4B04H   PUBLIC    CODE     ---       pit_timer_ms
      00FF4FAEH   PUBLIC    CODE     ---       ctimer_count_init
      000000D0H   SFRSYM    DATA     BYTE      PSW
      000000DBH   SFRSYM    DATA     BYTE      T4T3M
      00000088H.6 SFRSYM    DATA     BIT       TR1
      00000088H.4 SFRSYM    DATA     BIT       TR0
      000000CAH   SFRSYM    DATA     BYTE      T4L
      000000CCH   SFRSYM    DATA     BYTE      T3L
      000000CEH   SFRSYM    DATA     BYTE      T2L
      0000008BH   SFRSYM    DATA     BYTE      TL1
      0000008AH   SFRSYM    DATA     BYTE      TL0
      000000C9H   SFRSYM    DATA     BYTE      T4H
      000000CBH   SFRSYM    DATA     BYTE      T3H
      000000CDH   SFRSYM    DATA     BYTE      T2H
      0000008DH   SFRSYM    DATA     BYTE      TH1
      0000008CH   SFRSYM    DATA     BYTE      TH0
      000000A8H.3 SFRSYM    DATA     BIT       ET1
      000000A8H.1 SFRSYM    DATA     BIT       ET0
      00000093H   SFRSYM    DATA     BYTE      AUXR
      000000E7H   SFRSYM    DATA     BYTE      IE2
      000000F8H.7 SFRSYM    DATA     BIT       P77
      000000B0H.5 SFRSYM    DATA     BIT       P35
      00000088H   SFRSYM    DATA     BYTE      TCON
      00000089H   SFRSYM    DATA     BYTE      TMOD
      00000098H   SFRSYM    DATA     BYTE      SCON
      000000B8H   SFRSYM    DATA     BYTE      IP
      000000A8H   SFRSYM    DATA     BYTE      IE
      000000F8H   SFRSYM    DATA     BYTE      P7
      000000E8H   SFRSYM    DATA     BYTE      P6
      000000C8H   SFRSYM    DATA     BYTE      P5
      000000C0H   SFRSYM    DATA     BYTE      P4
      000000B0H   SFRSYM    DATA     BYTE      P3
      000000A0H   SFRSYM    DATA     BYTE      P2
      00000090H   SFRSYM    DATA     BYTE      P1
      00000080H   SFRSYM    DATA     BYTE      P0

      00FF4FAEH   BLOCK     CODE     ---       LVL=0
      WR6         REGSYM    ---      INT       tim_n
      00FF4FAEH   LINE      CODE     ---       #39
      00FF4FAEH   LINE      CODE     ---       #42
L251 LINKER/LOCATER V4.66.93.0                                                        07/17/2022  02:20:12  PAGE 43


      00FF4FC2H   LINE      CODE     ---       #44
      00FF4FC2H   LINE      CODE     ---       #46
      00FF4FC5H   LINE      CODE     ---       #47
      00FF4FC8H   LINE      CODE     ---       #48
      00FF4FCBH   LINE      CODE     ---       #49
      00FF4FCDH   LINE      CODE     ---       #50
      00FF4FCEH   LINE      CODE     ---       #53
      00FF4FCEH   LINE      CODE     ---       #55
      00FF4FD1H   LINE      CODE     ---       #56
      00FF4FD4H   LINE      CODE     ---       #57
      00FF4FD7H   LINE      CODE     ---       #58
      00FF4FD9H   LINE      CODE     ---       #59
      00FF4FDAH   LINE      CODE     ---       #62
      00FF4FDAH   LINE      CODE     ---       #64
      00FF4FDDH   LINE      CODE     ---       #65
      00FF4FE0H   LINE      CODE     ---       #66
      00FF4FE3H   LINE      CODE     ---       #67
      00FF4FE4H   LINE      CODE     ---       #70
      00FF4FE4H   LINE      CODE     ---       #72
      00FF4FE7H   LINE      CODE     ---       #73
      00FF4FEAH   LINE      CODE     ---       #74
      00FF4FEDH   LINE      CODE     ---       #75
      00FF4FEEH   LINE      CODE     ---       #78
      00FF4FEEH   LINE      CODE     ---       #80
      00FF4FF1H   LINE      CODE     ---       #81
      00FF4FF4H   LINE      CODE     ---       #82
      00FF4FF7H   LINE      CODE     ---       #83
      00FF4FF7H   LINE      CODE     ---       #86
      00FF4FF7H   LINE      CODE     ---       #87
      ---         BLOCKEND  ---      ---       LVL=0

      00FF4D34H   BLOCK     CODE     ---       LVL=0
      WR4         REGSYM    ---      INT       tim_n
      00FF4D36H   BLOCK     CODE     NEAR LAB  LVL=1
      WR6         REGSYM    ---      INT       dat
      ---         BLOCKEND  ---      ---       LVL=1
      00FF4D34H   LINE      CODE     ---       #95
      00FF4D36H   LINE      CODE     ---       #96
      00FF4D36H   LINE      CODE     ---       #97
      00FF4D38H   LINE      CODE     ---       #99
      00FF4D44H   LINE      CODE     ---       #101
      00FF4D44H   LINE      CODE     ---       #103
      00FF4D47H   LINE      CODE     ---       #105
      00FF4D4DH   LINE      CODE     ---       #106
      00FF4D53H   LINE      CODE     ---       #107
      00FF4D55H   LINE      CODE     ---       #110
      00FF4D5BH   LINE      CODE     ---       #111
      00FF4D61H   LINE      CODE     ---       #112
      00FF4D67H   LINE      CODE     ---       #113
      00FF4D67H   LINE      CODE     ---       #114
      00FF4D69H   LINE      CODE     ---       #115
      00FF4D6CH   LINE      CODE     ---       #116
      00FF4D6FH   LINE      CODE     ---       #117
      00FF4D71H   LINE      CODE     ---       #118
      00FF4D72H   LINE      CODE     ---       #132
      00FF4D72H   LINE      CODE     ---       #134
      00FF4D75H   LINE      CODE     ---       #136
      00FF4D7BH   LINE      CODE     ---       #137
      00FF4D81H   LINE      CODE     ---       #138
      00FF4D83H   LINE      CODE     ---       #142
      00FF4D89H   LINE      CODE     ---       #143
      00FF4D8FH   LINE      CODE     ---       #144
      00FF4D95H   LINE      CODE     ---       #145
      00FF4D95H   LINE      CODE     ---       #146
      00FF4D98H   LINE      CODE     ---       #147
L251 LINKER/LOCATER V4.66.93.0                                                        07/17/2022  02:20:12  PAGE 44


      00FF4D9BH   LINE      CODE     ---       #148
      00FF4D9EH   LINE      CODE     ---       #149
      00FF4DA1H   LINE      CODE     ---       #150
      00FF4DA1H   LINE      CODE     ---       #159
      00FF4DA1H   LINE      CODE     ---       #160
      00FF4DA1H   LINE      CODE     ---       #161
      ---         BLOCKEND  ---      ---       LVL=0
      WR6         REGSYM    ---      INT       tim_n

      00FF4B04H   BLOCK     CODE     ---       LVL=0
      WR30        REGSYM    ---      INT       tim_n
      WR28        REGSYM    ---      WORD      time_ms
      00FF4B06H   BLOCK     CODE     NEAR LAB  LVL=1
      WR28        REGSYM    ---      WORD      temp
      ---         BLOCKEND  ---      ---       LVL=1
      00FF4B04H   LINE      CODE     ---       #225
      00FF4B06H   LINE      CODE     ---       #226
      00FF4B06H   LINE      CODE     ---       #228
      00FF4B23H   LINE      CODE     ---       #230
      00FF4B27H   LINE      CODE     ---       #232
      00FF4B2BH   LINE      CODE     ---       #233
      00FF4B31H   LINE      CODE     ---       #234
      00FF4B35H   LINE      CODE     ---       #235
      00FF4B37H   LINE      CODE     ---       #236
      00FF4B39H   LINE      CODE     ---       #237
      00FF4B3AH   LINE      CODE     ---       #238
      00FF4B40H   LINE      CODE     ---       #240
      00FF4B44H   LINE      CODE     ---       #241
      00FF4B4AH   LINE      CODE     ---       #242
      00FF4B4EH   LINE      CODE     ---       #243
      00FF4B50H   LINE      CODE     ---       #244
      00FF4B52H   LINE      CODE     ---       #245
      00FF4B53H   LINE      CODE     ---       #246
      00FF4B59H   LINE      CODE     ---       #248
      00FF4B5FH   LINE      CODE     ---       #249
      00FF4B63H   LINE      CODE     ---       #250
      00FF4B66H   LINE      CODE     ---       #251
      00FF4B69H   LINE      CODE     ---       #252
      00FF4B6AH   LINE      CODE     ---       #253
      00FF4B70H   LINE      CODE     ---       #255
      00FF4B76H   LINE      CODE     ---       #256
      00FF4B7AH   LINE      CODE     ---       #257
      00FF4B7DH   LINE      CODE     ---       #258
      00FF4B80H   LINE      CODE     ---       #259
      00FF4B81H   LINE      CODE     ---       #260
      00FF4B87H   LINE      CODE     ---       #262
      00FF4B8DH   LINE      CODE     ---       #263
      00FF4B91H   LINE      CODE     ---       #264
      00FF4B94H   LINE      CODE     ---       #265
      00FF4B97H   LINE      CODE     ---       #266
      ---         BLOCKEND  ---      ---       LVL=0

      ---         MODULE    ---      ---       zf_uart
      00FF3E4AH   PUBLIC    CODE     ---       uart_init
      00000360H   PUBLIC    EDATA    ---       uart1_rx_buff
      000003C4H   PUBLIC    EDATA    ---       uart1_tx_buff
      00000428H   PUBLIC    EDATA    ---       busy
      000005A5H   PUBLIC    EDATA    ---       ?uart_init?BYTE
      000000D0H   SFRSYM    DATA     BYTE      PSW
      000000BCH   SFRSYM    DATA     BYTE      S4CON
      000000E5H   SFRSYM    DATA     BYTE      S3CON
      000000E3H   SFRSYM    DATA     BYTE      S2CON
      000000BDH   SFRSYM    DATA     BYTE      S4BUF
      000000E6H   SFRSYM    DATA     BYTE      S3BUF
      000000E4H   SFRSYM    DATA     BYTE      S2BUF
L251 LINKER/LOCATER V4.66.93.0                                                        07/17/2022  02:20:12  PAGE 45


      000000DBH   SFRSYM    DATA     BYTE      T4T3M
      00000088H.6 SFRSYM    DATA     BIT       TR1
      000000CAH   SFRSYM    DATA     BYTE      T4L
      000000CCH   SFRSYM    DATA     BYTE      T3L
      000000CEH   SFRSYM    DATA     BYTE      T2L
      0000008BH   SFRSYM    DATA     BYTE      TL1
      000000C9H   SFRSYM    DATA     BYTE      T4H
      000000CBH   SFRSYM    DATA     BYTE      T3H
      000000CDH   SFRSYM    DATA     BYTE      T2H
      0000008DH   SFRSYM    DATA     BYTE      TH1
      00000093H   SFRSYM    DATA     BYTE      AUXR
      000000E7H   SFRSYM    DATA     BYTE      IE2
      00000088H   SFRSYM    DATA     BYTE      TCON
      00000089H   SFRSYM    DATA     BYTE      TMOD
      00000098H   SFRSYM    DATA     BYTE      SCON
      00000099H   SFRSYM    DATA     BYTE      SBUF
      000000B8H   SFRSYM    DATA     BYTE      IP
      000000A8H.4 SFRSYM    DATA     BIT       ES
      000000A8H   SFRSYM    DATA     BYTE      IE
      0000009BH   SFRSYM    DATA     BYTE      P_SW2
      0000009AH   SFRSYM    DATA     BYTE      P_SW1
      000000F8H   SFRSYM    DATA     BYTE      P7
      000000E8H   SFRSYM    DATA     BYTE      P6
      000000C8H   SFRSYM    DATA     BYTE      P5
      000000C0H   SFRSYM    DATA     BYTE      P4
      000000ECH   SFRSYM    DATA     BYTE      P5M1
      000000B0H   SFRSYM    DATA     BYTE      P3
      000000EDH   SFRSYM    DATA     BYTE      P5M0
      000000A0H   SFRSYM    DATA     BYTE      P2
      00000090H   SFRSYM    DATA     BYTE      P1
      00000080H   SFRSYM    DATA     BYTE      P0

      00FF3E4AH   BLOCK     CODE     ---       LVL=0
      WR24        REGSYM    ---      INT       uart_n
      WR28        REGSYM    ---      INT       uart_rx_pin
      WR30        REGSYM    ---      INT       uart_tx_pin
      000005ABH   SYMBOL    EDATA    DWORD     baud
      WR26        REGSYM    ---      INT       tim_n
      00FF3E52H   BLOCK     CODE     NEAR LAB  LVL=1
      WR6         REGSYM    ---      WORD      brt
      ---         BLOCKEND  ---      ---       LVL=1
      00FF3E4AH   LINE      CODE     ---       #48
      00FF3E52H   LINE      CODE     ---       #49
      00FF3E52H   LINE      CODE     ---       #52
      00FF3E75H   LINE      CODE     ---       #55
      00FF3E93H   LINE      CODE     ---       #57
      00FF3E93H   LINE      CODE     ---       #59
      00FF3E99H   LINE      CODE     ---       #61
      00FF3E9CH   LINE      CODE     ---       #62
      00FF3EA0H   LINE      CODE     ---       #63
      00FF3EA4H   LINE      CODE     ---       #64
      00FF3EA8H   LINE      CODE     ---       #65
      00FF3EABH   LINE      CODE     ---       #66
      00FF3EADH   LINE      CODE     ---       #67
      00FF3EB2H   LINE      CODE     ---       #68
      00FF3EB4H   LINE      CODE     ---       #69
      00FF3EBAH   LINE      CODE     ---       #71
      00FF3EBDH   LINE      CODE     ---       #72
      00FF3EC1H   LINE      CODE     ---       #73
      00FF3EC5H   LINE      CODE     ---       #74
      00FF3EC8H   LINE      CODE     ---       #75
      00FF3EC8H   LINE      CODE     ---       #76
      00FF3ECBH   LINE      CODE     ---       #77
      00FF3ED5H   LINE      CODE     ---       #79
      00FF3ED9H   LINE      CODE     ---       #80
L251 LINKER/LOCATER V4.66.93.0                                                        07/17/2022  02:20:12  PAGE 46


      00FF3EDBH   LINE      CODE     ---       #81
      00FF3EE7H   LINE      CODE     ---       #83
      00FF3EEAH   LINE      CODE     ---       #84
      00FF3EECH   LINE      CODE     ---       #85
      00FF3EF8H   LINE      CODE     ---       #87
      00FF3EFBH   LINE      CODE     ---       #88
      00FF3EFDH   LINE      CODE     ---       #89
      00FF3F09H   LINE      CODE     ---       #91
      00FF3F0CH   LINE      CODE     ---       #92
      00FF3F0CH   LINE      CODE     ---       #93
      00FF3F11H   LINE      CODE     ---       #94
      00FF3F13H   LINE      CODE     ---       #95
      00FF3F14H   LINE      CODE     ---       #98
      00FF3F14H   LINE      CODE     ---       #100
      00FF3F1AH   LINE      CODE     ---       #102
      00FF3F1DH   LINE      CODE     ---       #103
      00FF3F21H   LINE      CODE     ---       #104
      00FF3F25H   LINE      CODE     ---       #105
      00FF3F28H   LINE      CODE     ---       #106
      00FF3F28H   LINE      CODE     ---       #108
      00FF3F2BH   LINE      CODE     ---       #109
      00FF3F37H   LINE      CODE     ---       #111
      00FF3F3BH   LINE      CODE     ---       #112
      00FF3F3DH   LINE      CODE     ---       #113
      00FF3F49H   LINE      CODE     ---       #115
      00FF3F4CH   LINE      CODE     ---       #116
      00FF3F4CH   LINE      CODE     ---       #118
      00FF3F4FH   LINE      CODE     ---       #119
      00FF3F54H   LINE      CODE     ---       #120
      00FF3F55H   LINE      CODE     ---       #123
      00FF3F55H   LINE      CODE     ---       #125
      00FF3F5BH   LINE      CODE     ---       #127
      00FF3F5EH   LINE      CODE     ---       #128
      00FF3F62H   LINE      CODE     ---       #129
      00FF3F66H   LINE      CODE     ---       #130
      00FF3F69H   LINE      CODE     ---       #131
      00FF3F6BH   LINE      CODE     ---       #132
      00FF3F71H   LINE      CODE     ---       #134
      00FF3F74H   LINE      CODE     ---       #135
      00FF3F78H   LINE      CODE     ---       #136
      00FF3F7CH   LINE      CODE     ---       #137
      00FF3F7FH   LINE      CODE     ---       #138
      00FF3F7FH   LINE      CODE     ---       #140
      00FF3F82H   LINE      CODE     ---       #141
      00FF3F8EH   LINE      CODE     ---       #143
      00FF3F92H   LINE      CODE     ---       #144
      00FF3F94H   LINE      CODE     ---       #145
      00FF3FA0H   LINE      CODE     ---       #147
      00FF3FA3H   LINE      CODE     ---       #148
      00FF3FA3H   LINE      CODE     ---       #150
      00FF3FA6H   LINE      CODE     ---       #151
      00FF3FABH   LINE      CODE     ---       #152
      00FF3FACH   LINE      CODE     ---       #155
      00FF3FACH   LINE      CODE     ---       #157
      00FF3FB2H   LINE      CODE     ---       #159
      00FF3FB5H   LINE      CODE     ---       #160
      00FF3FB9H   LINE      CODE     ---       #161
      00FF3FBDH   LINE      CODE     ---       #162
      00FF3FC0H   LINE      CODE     ---       #163
      00FF3FC2H   LINE      CODE     ---       #164
      00FF3FC8H   LINE      CODE     ---       #166
      00FF3FCBH   LINE      CODE     ---       #167
      00FF3FCFH   LINE      CODE     ---       #168
      00FF3FD3H   LINE      CODE     ---       #169
      00FF3FD6H   LINE      CODE     ---       #170
L251 LINKER/LOCATER V4.66.93.0                                                        07/17/2022  02:20:12  PAGE 47


      00FF3FD6H   LINE      CODE     ---       #172
      00FF3FD9H   LINE      CODE     ---       #173
      00FF3FE5H   LINE      CODE     ---       #175
      00FF3FE9H   LINE      CODE     ---       #176
      00FF3FEBH   LINE      CODE     ---       #177
      00FF3FF7H   LINE      CODE     ---       #179
      00FF3FFAH   LINE      CODE     ---       #180
      00FF3FFDH   LINE      CODE     ---       #181
      00FF4000H   LINE      CODE     ---       #182
      00FF4000H   LINE      CODE     ---       #183
      00FF4003H   LINE      CODE     ---       #184
      00FF4008H   LINE      CODE     ---       #185
      00FF4008H   LINE      CODE     ---       #188
      00FF4008H   LINE      CODE     ---       #190
      ---         BLOCKEND  ---      ---       LVL=0
      WR6         REGSYM    ---      INT       uart_n
      R10         REGSYM    ---      BYTE      dat
      REG=3       REGSYM    ---      ---       p
      REG=3       REGSYM    ---      ---       str

      ---         MODULE    ---      ---       SEEKFREE_18TFT
      00FF53D7H   PUBLIC    CODE     ---       lcd_clear_simspi
      00FF4EC6H   PUBLIC    CODE     ---       lcd_showstr_simspi
      00FF5402H   PUBLIC    CODE     ---       lcd_writeIndex_simspi
      00FF542BH   PUBLIC    CODE     ---       lcd_writeData_simspi
      00FF53ABH   PUBLIC    CODE     ---       lcd_writeData_16bit_simspi
      00FF4F62H   PUBLIC    CODE     ---       lcd_set_region_simspi
      00FF3C5BH   PUBLIC    CODE     ---       lcd_init_simspi
      00FF4C28H   PUBLIC    CODE     ---       lcd_showchar_simspi
      000000D0H   SFRSYM    DATA     BYTE      PSW
      000000A0H.5 SFRSYM    DATA     BIT       P25
      00000088H   SFRSYM    DATA     BYTE      TCON
      000000A0H.3 SFRSYM    DATA     BIT       P23
      00000098H   SFRSYM    DATA     BYTE      SCON
      000000A0H.2 SFRSYM    DATA     BIT       P22
      000000A0H.1 SFRSYM    DATA     BIT       P21
      000000A0H.0 SFRSYM    DATA     BIT       P20
      000000B8H   SFRSYM    DATA     BYTE      IP
      000000A8H   SFRSYM    DATA     BYTE      IE
      000000F8H   SFRSYM    DATA     BYTE      P7
      000000E8H   SFRSYM    DATA     BYTE      P6
      000000C8H   SFRSYM    DATA     BYTE      P5
      000000C0H   SFRSYM    DATA     BYTE      P4
      000000B0H   SFRSYM    DATA     BYTE      P3
      000000A0H   SFRSYM    DATA     BYTE      P2
      00000090H   SFRSYM    DATA     BYTE      P1
      00000080H   SFRSYM    DATA     BYTE      P0

      00FF5402H   BLOCK     CODE     ---       LVL=0
      R7          REGSYM    ---      BYTE      dat
      00FF5404H   BLOCK     CODE     NEAR LAB  LVL=1
      R6          REGSYM    ---      BYTE      i
      ---         BLOCKEND  ---      ---       LVL=1
      00FF5402H   LINE      CODE     ---       #59
      00FF5404H   LINE      CODE     ---       #60
      00FF5404H   LINE      CODE     ---       #61
      00FF5407H   LINE      CODE     ---       #63
      00FF5409H   LINE      CODE     ---       #64
      00FF540BH   LINE      CODE     ---       #65
      00FF540DH   LINE      CODE     ---       #67
      00FF540FH   LINE      CODE     ---       #69
      00FF5418H   LINE      CODE     ---       #70
      00FF541AH   LINE      CODE     ---       #71
      00FF541CH   LINE      CODE     ---       #73
      00FF541EH   LINE      CODE     ---       #74
L251 LINKER/LOCATER V4.66.93.0                                                        07/17/2022  02:20:12  PAGE 48


      00FF5420H   LINE      CODE     ---       #75
      00FF5428H   LINE      CODE     ---       #76
      00FF542AH   LINE      CODE     ---       #77
      ---         BLOCKEND  ---      ---       LVL=0

      00FF542BH   BLOCK     CODE     ---       LVL=0
      R7          REGSYM    ---      BYTE      dat
      00FF542DH   BLOCK     CODE     NEAR LAB  LVL=1
      R6          REGSYM    ---      BYTE      i
      ---         BLOCKEND  ---      ---       LVL=1
      00FF542BH   LINE      CODE     ---       #86
      00FF542DH   LINE      CODE     ---       #87
      00FF542DH   LINE      CODE     ---       #88
      00FF5430H   LINE      CODE     ---       #90
      00FF5432H   LINE      CODE     ---       #91
      00FF5434H   LINE      CODE     ---       #92
      00FF5436H   LINE      CODE     ---       #93
      00FF5438H   LINE      CODE     ---       #95
      00FF5441H   LINE      CODE     ---       #96
      00FF5443H   LINE      CODE     ---       #97
      00FF5445H   LINE      CODE     ---       #99
      00FF5447H   LINE      CODE     ---       #100
      00FF5449H   LINE      CODE     ---       #101
      00FF5451H   LINE      CODE     ---       #102
      00FF5453H   LINE      CODE     ---       #103
      ---         BLOCKEND  ---      ---       LVL=0

      00FF53ABH   BLOCK     CODE     ---       LVL=0
      WR4         REGSYM    ---      WORD      dat
      00FF53ADH   BLOCK     CODE     NEAR LAB  LVL=1
      R10         REGSYM    ---      BYTE      i
      ---         BLOCKEND  ---      ---       LVL=1
      00FF53ABH   LINE      CODE     ---       #112
      00FF53ADH   LINE      CODE     ---       #113
      00FF53ADH   LINE      CODE     ---       #114
      00FF53B0H   LINE      CODE     ---       #116
      00FF53B2H   LINE      CODE     ---       #117
      00FF53B4H   LINE      CODE     ---       #118
      00FF53B6H   LINE      CODE     ---       #120
      00FF53B8H   LINE      CODE     ---       #122
      00FF53C4H   LINE      CODE     ---       #123
      00FF53C6H   LINE      CODE     ---       #124
      00FF53C8H   LINE      CODE     ---       #126
      00FF53CAH   LINE      CODE     ---       #127
      00FF53CCH   LINE      CODE     ---       #128
      00FF53D4H   LINE      CODE     ---       #130
      00FF53D6H   LINE      CODE     ---       #132
      ---         BLOCKEND  ---      ---       LVL=0

      00FF4F62H   BLOCK     CODE     ---       LVL=0
      000005DFH   SYMBOL    EDATA    WORD      x_start
      000005E1H   SYMBOL    EDATA    WORD      y_start
      WR12        REGSYM    ---      WORD      x_end
      WR14        REGSYM    ---      WORD      y_end
      00FF4F62H   LINE      CODE     ---       #144
      00FF4F6CH   LINE      CODE     ---       #162
      00FF4F71H   LINE      CODE     ---       #163
      00FF4F75H   LINE      CODE     ---       #164
      00FF4F7EH   LINE      CODE     ---       #165
      00FF4F82H   LINE      CODE     ---       #166
      00FF4F89H   LINE      CODE     ---       #168
      00FF4F8EH   LINE      CODE     ---       #169
      00FF4F92H   LINE      CODE     ---       #170
      00FF4F9BH   LINE      CODE     ---       #171
      00FF4F9FH   LINE      CODE     ---       #172
L251 LINKER/LOCATER V4.66.93.0                                                        07/17/2022  02:20:12  PAGE 49


      00FF4FA6H   LINE      CODE     ---       #176
      00FF4FABH   LINE      CODE     ---       #177
      ---         BLOCKEND  ---      ---       LVL=0

      00FF53D7H   BLOCK     CODE     ---       LVL=0
      WR14        REGSYM    ---      INT       color
      00FF53DBH   BLOCK     CODE     NEAR LAB  LVL=1
      R13         REGSYM    ---      BYTE      i
      R12         REGSYM    ---      BYTE      j
      ---         BLOCKEND  ---      ---       LVL=1
      00FF53D7H   LINE      CODE     ---       #186
      00FF53DBH   LINE      CODE     ---       #187
      00FF53DBH   LINE      CODE     ---       #189
      00FF53EAH   LINE      CODE     ---       #190
      00FF53EDH   LINE      CODE     ---       #191
      00FF53EFH   LINE      CODE     ---       #192
      00FF53FFH   LINE      CODE     ---       #193
      ---         BLOCKEND  ---      ---       LVL=0

      00FF3C5BH   BLOCK     CODE     ---       LVL=0
      00FF3C5BH   LINE      CODE     ---       #202
      00FF3C5BH   LINE      CODE     ---       #206
      00FF3C5DH   LINE      CODE     ---       #207
      00FF3C64H   LINE      CODE     ---       #208
      00FF3C66H   LINE      CODE     ---       #209
      00FF3C6DH   LINE      CODE     ---       #210
      00FF3C72H   LINE      CODE     ---       #211
      00FF3C79H   LINE      CODE     ---       #213
      00FF3C7EH   LINE      CODE     ---       #214
      00FF3C83H   LINE      CODE     ---       #215
      00FF3C88H   LINE      CODE     ---       #216
      00FF3C8DH   LINE      CODE     ---       #218
      00FF3C92H   LINE      CODE     ---       #219
      00FF3C97H   LINE      CODE     ---       #220
      00FF3C9CH   LINE      CODE     ---       #221
      00FF3CA1H   LINE      CODE     ---       #223
      00FF3CA6H   LINE      CODE     ---       #224
      00FF3CABH   LINE      CODE     ---       #225
      00FF3CB0H   LINE      CODE     ---       #226
      00FF3CB5H   LINE      CODE     ---       #227
      00FF3CBAH   LINE      CODE     ---       #228
      00FF3CBFH   LINE      CODE     ---       #229
      00FF3CC4H   LINE      CODE     ---       #231
      00FF3CC9H   LINE      CODE     ---       #232
      00FF3CCEH   LINE      CODE     ---       #234
      00FF3CD3H   LINE      CODE     ---       #235
      00FF3CD8H   LINE      CODE     ---       #236
      00FF3CDDH   LINE      CODE     ---       #237
      00FF3CE2H   LINE      CODE     ---       #238
      00FF3CE7H   LINE      CODE     ---       #239
      00FF3CECH   LINE      CODE     ---       #241
      00FF3CF1H   LINE      CODE     ---       #242
      00FF3CF6H   LINE      CODE     ---       #243
      00FF3CFAH   LINE      CODE     ---       #245
      00FF3CFFH   LINE      CODE     ---       #246
      00FF3D04H   LINE      CODE     ---       #247
      00FF3D09H   LINE      CODE     ---       #248
      00FF3D0EH   LINE      CODE     ---       #249
      00FF3D13H   LINE      CODE     ---       #250
      00FF3D18H   LINE      CODE     ---       #252
      00FF3D1DH   LINE      CODE     ---       #253
      00FF3D22H   LINE      CODE     ---       #255
      00FF3D27H   LINE      CODE     ---       #256
      00FF3D3DH   LINE      CODE     ---       #258
      00FF3D41H   LINE      CODE     ---       #259
L251 LINKER/LOCATER V4.66.93.0                                                        07/17/2022  02:20:12  PAGE 50


      00FF3D44H   LINE      CODE     ---       #260
      00FF3D48H   LINE      CODE     ---       #261
      00FF3D4DH   LINE      CODE     ---       #262
      00FF3D4DH   LINE      CODE     ---       #264
      00FF3D52H   LINE      CODE     ---       #265
      00FF3D57H   LINE      CODE     ---       #266
      00FF3D5CH   LINE      CODE     ---       #267
      00FF3D61H   LINE      CODE     ---       #268
      00FF3D66H   LINE      CODE     ---       #269
      00FF3D6BH   LINE      CODE     ---       #270
      00FF3D70H   LINE      CODE     ---       #271
      00FF3D75H   LINE      CODE     ---       #272
      00FF3D7AH   LINE      CODE     ---       #273
      00FF3D7FH   LINE      CODE     ---       #274
      00FF3D84H   LINE      CODE     ---       #275
      00FF3D89H   LINE      CODE     ---       #276
      00FF3D8EH   LINE      CODE     ---       #277
      00FF3D92H   LINE      CODE     ---       #278
      00FF3D97H   LINE      CODE     ---       #279
      00FF3D9CH   LINE      CODE     ---       #280
      00FF3DA1H   LINE      CODE     ---       #282
      00FF3DA6H   LINE      CODE     ---       #283
      00FF3DABH   LINE      CODE     ---       #284
      00FF3DB0H   LINE      CODE     ---       #285
      00FF3DB5H   LINE      CODE     ---       #286
      00FF3DBAH   LINE      CODE     ---       #287
      00FF3DBFH   LINE      CODE     ---       #288
      00FF3DC4H   LINE      CODE     ---       #289
      00FF3DC9H   LINE      CODE     ---       #290
      00FF3DCEH   LINE      CODE     ---       #291
      00FF3DD3H   LINE      CODE     ---       #292
      00FF3DD8H   LINE      CODE     ---       #293
      00FF3DDDH   LINE      CODE     ---       #294
      00FF3DE2H   LINE      CODE     ---       #295
      00FF3DE6H   LINE      CODE     ---       #296
      00FF3DEBH   LINE      CODE     ---       #297
      00FF3DF0H   LINE      CODE     ---       #298
      00FF3DF5H   LINE      CODE     ---       #300
      00FF3DFAH   LINE      CODE     ---       #301
      00FF3DFEH   LINE      CODE     ---       #302
      00FF3E03H   LINE      CODE     ---       #303
      00FF3E07H   LINE      CODE     ---       #304
      00FF3E0CH   LINE      CODE     ---       #306
      00FF3E11H   LINE      CODE     ---       #307
      00FF3E15H   LINE      CODE     ---       #308
      00FF3E1AH   LINE      CODE     ---       #309
      00FF3E1EH   LINE      CODE     ---       #310
      00FF3E23H   LINE      CODE     ---       #312
      00FF3E28H   LINE      CODE     ---       #313
      00FF3E2DH   LINE      CODE     ---       #314
      00FF3E32H   LINE      CODE     ---       #315
      00FF3E36H   LINE      CODE     ---       #317
      00FF3E3BH   LINE      CODE     ---       #318
      00FF3E40H   LINE      CODE     ---       #319
      00FF3E45H   LINE      CODE     ---       #321
      ---         BLOCKEND  ---      ---       LVL=0
      WR2         REGSYM    ---      WORD      x
      WR0         REGSYM    ---      WORD      y
      WR14        REGSYM    ---      WORD      color

      00FF4C28H   BLOCK     CODE     ---       LVL=0
      WR12        REGSYM    ---      WORD      x
      WR14        REGSYM    ---      WORD      y
      000005DBH   SYMBOL    EDATA    CHAR      dat
      00FF4C32H   BLOCK     CODE     NEAR LAB  LVL=1
L251 LINKER/LOCATER V4.66.93.0                                                        07/17/2022  02:20:12  PAGE 51


      000005DCH   SYMBOL    EDATA    BYTE      i
      000005DDH   SYMBOL    EDATA    BYTE      j
      000005DEH   SYMBOL    EDATA    BYTE      temp
      ---         BLOCKEND  ---      ---       LVL=1
      00FF4C28H   LINE      CODE     ---       #350
      00FF4C32H   LINE      CODE     ---       #351
      00FF4C32H   LINE      CODE     ---       #355
      00FF4C37H   LINE      CODE     ---       #357
      00FF4C4CH   LINE      CODE     ---       #358
      00FF4C72H   LINE      CODE     ---       #359
      00FF4C77H   LINE      CODE     ---       #361
      00FF4C84H   LINE      CODE     ---       #362
      00FF4C89H   LINE      CODE     ---       #363
      00FF4C93H   LINE      CODE     ---       #364
      00FF4C9FH   LINE      CODE     ---       #365
      00FF4CB1H   LINE      CODE     ---       #366
      ---         BLOCKEND  ---      ---       LVL=0

      00FF4EC6H   BLOCK     CODE     ---       LVL=0
      000005D5H   SYMBOL    EDATA    WORD      x
      000005D7H   SYMBOL    EDATA    WORD      y
      REG=3       REGSYM    ---      ---       dat
      00FF4ED2H   BLOCK     CODE     NEAR LAB  LVL=1
      000005D9H   SYMBOL    EDATA    WORD      j
      ---         BLOCKEND  ---      ---       LVL=1
      00FF4EC6H   LINE      CODE     ---       #377
      00FF4ED2H   LINE      CODE     ---       #378
      00FF4ED2H   LINE      CODE     ---       #381
      00FF4ED4H   LINE      CODE     ---       #382
      00FF4ED6H   LINE      CODE     ---       #384
      00FF4EFCH   LINE      CODE     ---       #385
      00FF4F06H   LINE      CODE     ---       #386
      00FF4F11H   LINE      CODE     ---       #387
      ---         BLOCKEND  ---      ---       LVL=0
      WR12        REGSYM    ---      WORD      x
      WR14        REGSYM    ---      WORD      y
      WR12        REGSYM    ---      WORD      x
      WR14        REGSYM    ---      WORD      y
      R10         REGSYM    ---      BYTE      dat
      WR12        REGSYM    ---      WORD      x
      WR14        REGSYM    ---      WORD      y
      WR12        REGSYM    ---      WORD      x
      WR14        REGSYM    ---      WORD      y
      WR2         REGSYM    ---      WORD      dat
      WR12        REGSYM    ---      WORD      y
      R15         REGSYM    ---      BYTE      num
      R14         REGSYM    ---      BYTE      length
      DR12        REGSYM    ---      FLOAT     dat
      R7          REGSYM    ---      CHAR      point
      R7          REGSYM    ---      BYTE      dat
      R7          REGSYM    ---      BYTE      dat
      WR4         REGSYM    ---      WORD      dat
      WR12        REGSYM    ---      WORD      x_end
      WR14        REGSYM    ---      WORD      y_end
      WR14        REGSYM    ---      INT       color
      R13         REGSYM    ---      BYTE      i
      R12         REGSYM    ---      BYTE      j
      WR2         REGSYM    ---      WORD      x
      WR0         REGSYM    ---      WORD      y
      WR14        REGSYM    ---      WORD      color
      WR12        REGSYM    ---      WORD      x
      WR14        REGSYM    ---      WORD      y
      REG=3       REGSYM    ---      ---       dat
      WR12        REGSYM    ---      WORD      x
      WR14        REGSYM    ---      WORD      y
L251 LINKER/LOCATER V4.66.93.0                                                        07/17/2022  02:20:12  PAGE 52


      WR12        REGSYM    ---      WORD      x
      WR14        REGSYM    ---      WORD      y
      R10         REGSYM    ---      BYTE      dat
      WR12        REGSYM    ---      WORD      x
      WR14        REGSYM    ---      WORD      y
      WR12        REGSYM    ---      WORD      x
      WR14        REGSYM    ---      WORD      y
      WR2         REGSYM    ---      WORD      dat
      WR12        REGSYM    ---      WORD      y
      R15         REGSYM    ---      BYTE      num
      R14         REGSYM    ---      BYTE      length
      DR12        REGSYM    ---      FLOAT     dat
      R7          REGSYM    ---      CHAR      point
      REG=3       REGSYM    ---      ---       p

      ---         MODULE    ---      ---       SEEKFREE_ABSOLUTE_ENCODER
      000000D0H   SFRSYM    DATA     BYTE      PSW
      000000A0H.7 SFRSYM    DATA     BIT       P27
      000000A0H.6 SFRSYM    DATA     BIT       P26
      000000A0H.5 SFRSYM    DATA     BIT       P25
      000000A0H.4 SFRSYM    DATA     BIT       P24
      00000088H   SFRSYM    DATA     BYTE      TCON
      00000098H   SFRSYM    DATA     BYTE      SCON
      000000A0H.2 SFRSYM    DATA     BIT       P22
      000000B8H   SFRSYM    DATA     BYTE      IP
      000000A8H   SFRSYM    DATA     BYTE      IE
      000000F8H   SFRSYM    DATA     BYTE      P7
      000000E8H   SFRSYM    DATA     BYTE      P6
      000000C8H   SFRSYM    DATA     BYTE      P5
      000000C0H   SFRSYM    DATA     BYTE      P4
      000000B0H   SFRSYM    DATA     BYTE      P3
      000000A0H   SFRSYM    DATA     BYTE      P2
      00000090H   SFRSYM    DATA     BYTE      P1
      00000080H   SFRSYM    DATA     BYTE      P0
      WR6         REGSYM    ---      WORD      x
      R6          REGSYM    ---      BYTE      byte
      R7          REGSYM    ---      BYTE      i
      R7          REGSYM    ---      BYTE      cmd
      R15         REGSYM    ---      BYTE      val
      R7          REGSYM    ---      BYTE      cmd
      REG=3       REGSYM    ---      ---       val
      R7          REGSYM    ---      BYTE      cmd
      R15         REGSYM    ---      BYTE      val
      R14         REGSYM    ---      BYTE      dat
      R7          REGSYM    ---      BYTE      cmd
      REG=3       REGSYM    ---      ---       val
      WR14        REGSYM    ---      WORD      zero_position
      WR14        REGSYM    ---      WORD      angle
      R10         REGSYM    ---      BYTE      byte
      R7          REGSYM    ---      BYTE      cmd
      R15         REGSYM    ---      BYTE      val
      R7          REGSYM    ---      BYTE      cmd
      REG=3       REGSYM    ---      ---       val
      R7          REGSYM    ---      BYTE      cmd
      R15         REGSYM    ---      BYTE      val
      R14         REGSYM    ---      BYTE      dat
      R7          REGSYM    ---      BYTE      cmd
      REG=3       REGSYM    ---      ---       val
      WR14        REGSYM    ---      WORD      zero_position
      WR14        REGSYM    ---      WORD      angle

      ---         MODULE    ---      ---       SEEKFREE_FONT
      00FF00A6H   PUBLIC    CODE     ---       oled_8x16
      00FF0696H   PUBLIC    CODE     ---       tft_ascii
      00FF0C86H   PUBLIC    CODE     ---       oled_6x8
L251 LINKER/LOCATER V4.66.93.0                                                        07/17/2022  02:20:12  PAGE 53


      000000D0H   SFRSYM    DATA     BYTE      PSW
      00000088H   SFRSYM    DATA     BYTE      TCON
      00000098H   SFRSYM    DATA     BYTE      SCON
      000000B8H   SFRSYM    DATA     BYTE      IP
      000000A8H   SFRSYM    DATA     BYTE      IE
      000000F8H   SFRSYM    DATA     BYTE      P7
      000000E8H   SFRSYM    DATA     BYTE      P6
      000000C8H   SFRSYM    DATA     BYTE      P5
      000000C0H   SFRSYM    DATA     BYTE      P4
      000000B0H   SFRSYM    DATA     BYTE      P3
      000000A0H   SFRSYM    DATA     BYTE      P2
      00000090H   SFRSYM    DATA     BYTE      P1
      00000080H   SFRSYM    DATA     BYTE      P0

      ---         MODULE    ---      ---       SEEKFREE_ICM20602
      000004EDH   PUBLIC    EDATA    FLOAT     I_ex
      000004F1H   PUBLIC    EDATA    FLOAT     I_ey
      000004F5H   PUBLIC    EDATA    FLOAT     I_ez
      000004F9H   PUBLIC    EDATA    ---       eulerAngle
      00000505H   PUBLIC    EDATA    ---       GyroOffset
      00000511H   PUBLIC    EDATA    INT       icm_acc_x
      00000513H   PUBLIC    EDATA    INT       icm_acc_y
      00000515H   PUBLIC    EDATA    INT       icm_acc_z
      00000517H   PUBLIC    EDATA    FLOAT     param_Ki
      0000051BH   PUBLIC    EDATA    FLOAT     param_Kp
      0000051FH   PUBLIC    EDATA    WORD      init
      00000521H   PUBLIC    EDATA    ---       icm_data
      00000539H   PUBLIC    EDATA    INT       icm_gyro_x
      0000053BH   PUBLIC    EDATA    INT       icm_gyro_y
      0000053DH   PUBLIC    EDATA    INT       icm_gyro_z
      0000053FH   PUBLIC    EDATA    ---       Q_info
      000000D0H   SFRSYM    DATA     BYTE      PSW
      000000F8H.2 SFRSYM    DATA     BIT       P72
      000000F8H.1 SFRSYM    DATA     BIT       P71
      000000F8H.0 SFRSYM    DATA     BIT       P70
      00000088H   SFRSYM    DATA     BYTE      TCON
      000000C0H.1 SFRSYM    DATA     BIT       P41
      00000098H   SFRSYM    DATA     BYTE      SCON
      000000B8H   SFRSYM    DATA     BYTE      IP
      000000A8H   SFRSYM    DATA     BYTE      IE
      000000F8H   SFRSYM    DATA     BYTE      P7
      000000E8H   SFRSYM    DATA     BYTE      P6
      000000C8H   SFRSYM    DATA     BYTE      P5
      000000C0H   SFRSYM    DATA     BYTE      P4
      000000B0H   SFRSYM    DATA     BYTE      P3
      000000A0H   SFRSYM    DATA     BYTE      P2
      00000090H   SFRSYM    DATA     BYTE      P1
      00000080H   SFRSYM    DATA     BYTE      P0
      R15         REGSYM    ---      BYTE      dat
      R6          REGSYM    ---      BYTE      byte
      R7          REGSYM    ---      BYTE      i
      R7          REGSYM    ---      BYTE      cmd
      R15         REGSYM    ---      BYTE      val
      R7          REGSYM    ---      BYTE      cmd
      REG=3       REGSYM    ---      ---       val
      R7          REGSYM    ---      BYTE      cmd
      REG=3       REGSYM    ---      ---       val
      DR28        REGSYM    ---      FLOAT     x
      DR4         REGSYM    ---      FLOAT     halfx
      WR14        REGSYM    ---      INT       i
      DR12        REGSYM    ---      FLOAT     gy
      DR28        REGSYM    ---      FLOAT     vz
      DR16        REGSYM    ---      FLOAT     ex
      DR20        REGSYM    ---      FLOAT     ey
      DR24        REGSYM    ---      FLOAT     ez
L251 LINKER/LOCATER V4.66.93.0                                                        07/17/2022  02:20:12  PAGE 54


      DR28        REGSYM    ---      FLOAT     norm
      DR12        REGSYM    ---      FLOAT     q2

      ---         MODULE    ---      ---       SEEKFREE_IIC
      00FF55B2H   PUBLIC    CODE     ---       simiic_start
      00FF525BH   PUBLIC    CODE     ---       simiic_read_reg
      00FF556EH   PUBLIC    CODE     ---       simiic_stop
      00FF54A1H   PUBLIC    CODE     ---       simiic_write_reg
      00FF54C3H   PUBLIC    CODE     ---       simiic_sendack
      00FF513AH   PUBLIC    CODE     ---       read_ch
      00FF534FH   PUBLIC    CODE     ---       send_ch
      00FF55CFH   PUBLIC    CODE     ---       simiic_delay
      000006ACH   PUBLIC    EDATA    BYTE      IIC_ad_main
      000006ADH   PUBLIC    EDATA    BYTE      IIC_num
      000006AEH   PUBLIC    EDATA    BYTE      IIC_ad_sub
      000006AFH   PUBLIC    EDATA    ---       IIC_buf
      000000D0H   SFRSYM    DATA     BYTE      PSW
      000000E8H.7 SFRSYM    DATA     BIT       P67
      00000088H   SFRSYM    DATA     BYTE      TCON
      00000098H   SFRSYM    DATA     BYTE      SCON
      000000C0H.0 SFRSYM    DATA     BIT       P40
      000000B8H   SFRSYM    DATA     BYTE      IP
      000000A8H   SFRSYM    DATA     BYTE      IE
      000000F8H   SFRSYM    DATA     BYTE      P7
      000000E8H   SFRSYM    DATA     BYTE      P6
      000000C8H   SFRSYM    DATA     BYTE      P5
      000000C0H   SFRSYM    DATA     BYTE      P4
      000000B0H   SFRSYM    DATA     BYTE      P3
      000000A0H   SFRSYM    DATA     BYTE      P2
      00000090H   SFRSYM    DATA     BYTE      P1
      00000080H   SFRSYM    DATA     BYTE      P0
      00FF0026H   SYMBOL    CODE     ---       sccb_waitack

      00FF55CFH   BLOCK     CODE     ---       LVL=0
      WR6         REGSYM    ---      WORD      j
      00FF55CFH   LINE      CODE     ---       #66
      00FF55CFH   LINE      CODE     ---       #67
      00FF55CFH   LINE      CODE     ---       #68
      00FF55D1H   LINE      CODE     ---       #69
      00FF55D9H   LINE      CODE     ---       #70
      ---         BLOCKEND  ---      ---       LVL=0

      00FF55B2H   BLOCK     CODE     ---       LVL=0
      00FF55B2H   LINE      CODE     ---       #74
      00FF55B2H   LINE      CODE     ---       #76
      00FF55B4H   LINE      CODE     ---       #77
      00FF55B6H   LINE      CODE     ---       #78
      00FF55B9H   LINE      CODE     ---       #79
      00FF55BBH   LINE      CODE     ---       #80
      00FF55BEH   LINE      CODE     ---       #81
      00FF55C0H   LINE      CODE     ---       #82
      ---         BLOCKEND  ---      ---       LVL=0

      00FF556EH   BLOCK     CODE     ---       LVL=0
      00FF556EH   LINE      CODE     ---       #85
      00FF556EH   LINE      CODE     ---       #87
      00FF5570H   LINE      CODE     ---       #88
      00FF5572H   LINE      CODE     ---       #89
      00FF5575H   LINE      CODE     ---       #90
      00FF5577H   LINE      CODE     ---       #91
      00FF557AH   LINE      CODE     ---       #92
      00FF557CH   LINE      CODE     ---       #93
      ---         BLOCKEND  ---      ---       LVL=0

      00FF54C3H   BLOCK     CODE     ---       LVL=0
L251 LINKER/LOCATER V4.66.93.0                                                        07/17/2022  02:20:12  PAGE 55


      R15         REGSYM    ---      BYTE      ack_dat
      00FF54C3H   LINE      CODE     ---       #98
      00FF54C7H   LINE      CODE     ---       #100
      00FF54C9H   LINE      CODE     ---       #101
      00FF54CCH   LINE      CODE     ---       #102
      00FF54D4H   LINE      CODE     ---       #103
      00FF54D6H   LINE      CODE     ---       #105
      00FF54D8H   LINE      CODE     ---       #106
      00FF54DBH   LINE      CODE     ---       #107
      00FF54DDH   LINE      CODE     ---       #108
      00FF54E0H   LINE      CODE     ---       #109
      ---         BLOCKEND  ---      ---       LVL=0

      00FF0026H   BLOCK     CODE     ---       LVL=0
      00FF0026H   LINE      CODE     ---       #112
      00FF0026H   LINE      CODE     ---       #114
      00FF0028H   LINE      CODE     ---       #116
      00FF002BH   LINE      CODE     ---       #118
      00FF002DH   LINE      CODE     ---       #119
      00FF0030H   LINE      CODE     ---       #121
      00FF0033H   LINE      CODE     ---       #124
      00FF0035H   LINE      CODE     ---       #125
      00FF0038H   LINE      CODE     ---       #126
      00FF0038H   LINE      CODE     ---       #128
      00FF003AH   LINE      CODE     ---       #129
      00FF003DH   LINE      CODE     ---       #130
      00FF0041H   LINE      CODE     ---       #131
      ---         BLOCKEND  ---      ---       LVL=0

      00FF534FH   BLOCK     CODE     ---       LVL=0
      R15         REGSYM    ---      BYTE      c
      00FF5353H   BLOCK     CODE     NEAR LAB  LVL=1
      R14         REGSYM    ---      BYTE      i
      ---         BLOCKEND  ---      ---       LVL=1
      00FF534FH   LINE      CODE     ---       #137
      00FF5353H   LINE      CODE     ---       #138
      00FF5353H   LINE      CODE     ---       #139
      00FF5356H   LINE      CODE     ---       #140
      00FF5358H   LINE      CODE     ---       #142
      00FF5361H   LINE      CODE     ---       #143
      00FF5363H   LINE      CODE     ---       #144
      00FF5365H   LINE      CODE     ---       #145
      00FF5368H   LINE      CODE     ---       #146
      00FF536AH   LINE      CODE     ---       #147
      00FF536DH   LINE      CODE     ---       #148
      00FF536FH   LINE      CODE     ---       #149
      00FF5377H   LINE      CODE     ---       #150
      00FF537AH   LINE      CODE     ---       #151
      ---         BLOCKEND  ---      ---       LVL=0

      00FF513AH   BLOCK     CODE     ---       LVL=0
      R15         REGSYM    ---      BYTE      ack_x
      00FF5140H   BLOCK     CODE     NEAR LAB  LVL=1
      R13         REGSYM    ---      BYTE      i
      R14         REGSYM    ---      BYTE      c
      ---         BLOCKEND  ---      ---       LVL=1
      00FF513AH   LINE      CODE     ---       #156
      00FF5140H   LINE      CODE     ---       #157
      00FF5140H   LINE      CODE     ---       #160
      00FF5142H   LINE      CODE     ---       #161
      00FF5144H   LINE      CODE     ---       #162
      00FF5147H   LINE      CODE     ---       #163
      00FF5149H   LINE      CODE     ---       #165
      00FF514CH   LINE      CODE     ---       #167
      00FF514FH   LINE      CODE     ---       #168
L251 LINKER/LOCATER V4.66.93.0                                                        07/17/2022  02:20:12  PAGE 56


      00FF5151H   LINE      CODE     ---       #169
      00FF5154H   LINE      CODE     ---       #170
      00FF5156H   LINE      CODE     ---       #171
      00FF5159H   LINE      CODE     ---       #172
      00FF515BH   LINE      CODE     ---       #173
      00FF515EH   LINE      CODE     ---       #175
      00FF5160H   LINE      CODE     ---       #176
      00FF5164H   LINE      CODE     ---       #179
      00FF5166H   LINE      CODE     ---       #180
      00FF5169H   LINE      CODE     ---       #181
      00FF516EH   LINE      CODE     ---       #183
      00FF5170H   LINE      CODE     ---       #184
      ---         BLOCKEND  ---      ---       LVL=0

      00FF54A1H   BLOCK     CODE     ---       LVL=0
      R13         REGSYM    ---      BYTE      dev_add
      R14         REGSYM    ---      BYTE      reg
      R15         REGSYM    ---      BYTE      dat
      00FF54A1H   LINE      CODE     ---       #195
      00FF54A9H   LINE      CODE     ---       #197
      00FF54ACH   LINE      CODE     ---       #198
      00FF54B1H   LINE      CODE     ---       #199
      00FF54B6H   LINE      CODE     ---       #200
      00FF54BBH   LINE      CODE     ---       #201
      00FF54BEH   LINE      CODE     ---       #202
      ---         BLOCKEND  ---      ---       LVL=0

      00FF525BH   BLOCK     CODE     ---       LVL=0
      R15         REGSYM    ---      BYTE      dev_add
      R14         REGSYM    ---      BYTE      reg
      WR12        REGSYM    ---      INT       type
      00FF5263H   BLOCK     CODE     NEAR LAB  LVL=1
      R15         REGSYM    ---      BYTE      dat
      ---         BLOCKEND  ---      ---       LVL=1
      00FF525BH   LINE      CODE     ---       #214
      00FF5263H   LINE      CODE     ---       #215
      00FF5263H   LINE      CODE     ---       #217
      00FF5266H   LINE      CODE     ---       #218
      00FF526BH   LINE      CODE     ---       #219
      00FF5270H   LINE      CODE     ---       #220
      00FF5279H   LINE      CODE     ---       #222
      00FF527CH   LINE      CODE     ---       #223
      00FF5285H   LINE      CODE     ---       #224
      00FF5289H   LINE      CODE     ---       #225
      00FF528CH   LINE      CODE     ---       #227
      00FF528CH   LINE      CODE     ---       #228
      ---         BLOCKEND  ---      ---       LVL=0
      REG=3       REGSYM    ---      ---       dat_add

      ---         MODULE    ---      ---       SEEKFREE_IPS114_SPI
      000000D0H   SFRSYM    DATA     BYTE      PSW
      000000A0H.7 SFRSYM    DATA     BIT       P27
      000000A0H.5 SFRSYM    DATA     BIT       P25
      00000088H   SFRSYM    DATA     BYTE      TCON
      000000A0H.3 SFRSYM    DATA     BIT       P23
      00000098H   SFRSYM    DATA     BYTE      SCON
      000000A0H.2 SFRSYM    DATA     BIT       P22
      000000A0H.1 SFRSYM    DATA     BIT       P21
      000000A0H.0 SFRSYM    DATA     BIT       P20
      000000B8H   SFRSYM    DATA     BYTE      IP
      000000A8H   SFRSYM    DATA     BYTE      IE
      000000F8H   SFRSYM    DATA     BYTE      P7
      000000E8H   SFRSYM    DATA     BYTE      P6
      000000C8H   SFRSYM    DATA     BYTE      P5
      000000C0H   SFRSYM    DATA     BYTE      P4
L251 LINKER/LOCATER V4.66.93.0                                                        07/17/2022  02:20:12  PAGE 57


      000000B0H   SFRSYM    DATA     BYTE      P3
      000000A0H   SFRSYM    DATA     BYTE      P2
      00000090H   SFRSYM    DATA     BYTE      P1
      00000080H   SFRSYM    DATA     BYTE      P0
      R7          REGSYM    ---      BYTE      dat
      R6          REGSYM    ---      BYTE      i
      R7          REGSYM    ---      BYTE      dat
      R6          REGSYM    ---      BYTE      i
      WR4         REGSYM    ---      WORD      dat
      R10         REGSYM    ---      BYTE      i
      WR12        REGSYM    ---      WORD      x2
      WR14        REGSYM    ---      WORD      y2
      WR14        REGSYM    ---      WORD      color
      R13         REGSYM    ---      BYTE      i
      WR2         REGSYM    ---      WORD      x
      WR0         REGSYM    ---      WORD      y
      WR14        REGSYM    ---      WORD      color
      WR12        REGSYM    ---      WORD      x
      WR14        REGSYM    ---      WORD      y
      REG=3       REGSYM    ---      ---       dat
      WR12        REGSYM    ---      WORD      x
      WR14        REGSYM    ---      WORD      y
      WR12        REGSYM    ---      WORD      x
      WR14        REGSYM    ---      WORD      y
      R10         REGSYM    ---      BYTE      dat
      WR12        REGSYM    ---      WORD      x
      WR14        REGSYM    ---      WORD      y
      WR12        REGSYM    ---      WORD      x
      WR14        REGSYM    ---      WORD      y
      WR2         REGSYM    ---      WORD      dat
      WR12        REGSYM    ---      WORD      y
      R15         REGSYM    ---      BYTE      num
      R14         REGSYM    ---      BYTE      length
      DR12        REGSYM    ---      FLOAT     dat
      R7          REGSYM    ---      CHAR      point
      R7          REGSYM    ---      BYTE      dat
      R7          REGSYM    ---      BYTE      dat
      WR4         REGSYM    ---      WORD      dat
      WR12        REGSYM    ---      WORD      x2
      WR14        REGSYM    ---      WORD      y2
      WR14        REGSYM    ---      WORD      color
      R13         REGSYM    ---      BYTE      i
      WR2         REGSYM    ---      WORD      x
      WR0         REGSYM    ---      WORD      y
      WR14        REGSYM    ---      WORD      color
      WR12        REGSYM    ---      WORD      x
      WR14        REGSYM    ---      WORD      y
      REG=3       REGSYM    ---      ---       dat
      WR12        REGSYM    ---      WORD      x
      WR14        REGSYM    ---      WORD      y
      WR12        REGSYM    ---      WORD      x
      WR14        REGSYM    ---      WORD      y
      R10         REGSYM    ---      BYTE      dat
      WR12        REGSYM    ---      WORD      x
      WR14        REGSYM    ---      WORD      y
      WR12        REGSYM    ---      WORD      x
      WR14        REGSYM    ---      WORD      y
      WR2         REGSYM    ---      WORD      dat
      WR12        REGSYM    ---      WORD      y
      R15         REGSYM    ---      BYTE      num
      R14         REGSYM    ---      BYTE      length
      DR12        REGSYM    ---      FLOAT     dat
      R7          REGSYM    ---      CHAR      point

      ---         MODULE    ---      ---       SEEKFREE_MPU6050
L251 LINKER/LOCATER V4.66.93.0                                                        07/17/2022  02:20:12  PAGE 58


      00000696H   PUBLIC    EDATA    INT       mpu_acc_x
      00000698H   PUBLIC    EDATA    INT       mpu_acc_y
      0000069AH   PUBLIC    EDATA    INT       mpu_acc_z
      0000069CH   PUBLIC    EDATA    INT       mpu_gyro_x
      0000069EH   PUBLIC    EDATA    INT       mpu_gyro_y
      000006A0H   PUBLIC    EDATA    INT       mpu_gyro_z
      000000D0H   SFRSYM    DATA     BYTE      PSW
      00000088H   SFRSYM    DATA     BYTE      TCON
      00000098H   SFRSYM    DATA     BYTE      SCON
      000000B8H   SFRSYM    DATA     BYTE      IP
      000000A8H   SFRSYM    DATA     BYTE      IE
      000000F8H   SFRSYM    DATA     BYTE      P7
      000000E8H   SFRSYM    DATA     BYTE      P6
      000000C8H   SFRSYM    DATA     BYTE      P5
      000000C0H   SFRSYM    DATA     BYTE      P4
      000000B0H   SFRSYM    DATA     BYTE      P3
      000000A0H   SFRSYM    DATA     BYTE      P2
      00000090H   SFRSYM    DATA     BYTE      P1
      00000080H   SFRSYM    DATA     BYTE      P0

      ---         MODULE    ---      ---       SEEKFREE_OLED
      000000D0H   SFRSYM    DATA     BYTE      PSW
      000000A0H.5 SFRSYM    DATA     BIT       P25
      00000088H   SFRSYM    DATA     BYTE      TCON
      000000A0H.3 SFRSYM    DATA     BIT       P23
      00000098H   SFRSYM    DATA     BYTE      SCON
      000000A0H.2 SFRSYM    DATA     BIT       P22
      000000A0H.1 SFRSYM    DATA     BIT       P21
      000000A0H.0 SFRSYM    DATA     BIT       P20
      000000B8H   SFRSYM    DATA     BYTE      IP
      000000A8H   SFRSYM    DATA     BYTE      IE
      000000F8H   SFRSYM    DATA     BYTE      P7
      000000E8H   SFRSYM    DATA     BYTE      P6
      000000C8H   SFRSYM    DATA     BYTE      P5
      000000C0H   SFRSYM    DATA     BYTE      P4
      000000B0H   SFRSYM    DATA     BYTE      P3
      000000A0H   SFRSYM    DATA     BYTE      P2
      00000090H   SFRSYM    DATA     BYTE      P1
      00000080H   SFRSYM    DATA     BYTE      P0
      R7          REGSYM    ---      BYTE      dat
      R6          REGSYM    ---      BYTE      i
      R7          REGSYM    ---      BYTE      cmd
      R6          REGSYM    ---      BYTE      i
      WR8         REGSYM    ---      WORD      hex
      REG=7       REGSYM    ---      ---       Print
      R5          REGSYM    ---      BYTE      hexcheck
      R10         REGSYM    ---      BYTE      TEMP
      R15         REGSYM    ---      BYTE      x
      R10         REGSYM    ---      BYTE      y
      R15         REGSYM    ---      BYTE      bmp_data
      R14         REGSYM    ---      BYTE      y
      R13         REGSYM    ---      BYTE      x
      R15         REGSYM    ---      BYTE      x
      R14         REGSYM    ---      BYTE      y
      R13         REGSYM    ---      BYTE      data1
      R15         REGSYM    ---      BYTE      x
      R14         REGSYM    ---      BYTE      y
      REG=3       REGSYM    ---      ---       ch
      REG=3       REGSYM    ---      ---       ch
      R14         REGSYM    ---      BYTE      x
      R15         REGSYM    ---      BYTE      y
      WR4         REGSYM    ---      WORD      num
      R15         REGSYM    ---      BYTE      x
      R14         REGSYM    ---      BYTE      y
      WR12        REGSYM    ---      INT       num
L251 LINKER/LOCATER V4.66.93.0                                                        07/17/2022  02:20:12  PAGE 59


      WR12        REGSYM    ---      WORD      y
      R15         REGSYM    ---      BYTE      num
      R14         REGSYM    ---      BYTE      length
      DR12        REGSYM    ---      FLOAT     dat
      R7          REGSYM    ---      CHAR      point
      WR4         REGSYM    ---      WORD      high
      REG=3       REGSYM    ---      ---       p
      REG=3       REGSYM    ---      ---       p
      R7          REGSYM    ---      BYTE      dat
      R7          REGSYM    ---      BYTE      cmd
      WR8         REGSYM    ---      WORD      hex
      REG=7       REGSYM    ---      ---       Print
      R5          REGSYM    ---      BYTE      hexcheck
      R10         REGSYM    ---      BYTE      TEMP
      R15         REGSYM    ---      BYTE      x
      R10         REGSYM    ---      BYTE      y
      R15         REGSYM    ---      BYTE      bmp_data
      R14         REGSYM    ---      BYTE      y
      R13         REGSYM    ---      BYTE      x
      R15         REGSYM    ---      BYTE      x
      R14         REGSYM    ---      BYTE      y
      R13         REGSYM    ---      BYTE      data1
      R15         REGSYM    ---      BYTE      x
      R14         REGSYM    ---      BYTE      y
      REG=3       REGSYM    ---      ---       ch
      REG=3       REGSYM    ---      ---       ch
      R14         REGSYM    ---      BYTE      x
      R15         REGSYM    ---      BYTE      y
      WR4         REGSYM    ---      WORD      num
      R15         REGSYM    ---      BYTE      x
      R14         REGSYM    ---      BYTE      y
      WR12        REGSYM    ---      INT       num
      WR12        REGSYM    ---      WORD      y
      R15         REGSYM    ---      BYTE      num
      R14         REGSYM    ---      BYTE      length
      DR12        REGSYM    ---      FLOAT     dat
      R7          REGSYM    ---      CHAR      point
      WR4         REGSYM    ---      WORD      high
      REG=3       REGSYM    ---      ---       p
      REG=3       REGSYM    ---      ---       p

      ---         MODULE    ---      ---       SEEKFREE_TSL1401
      0000025FH   PUBLIC    EDATA    BYTE      tsl1401_finish_flag
      00000260H   PUBLIC    EDATA    ---       ccd_data
      000000D0H   SFRSYM    DATA     BYTE      PSW
      000000C8H.1 SFRSYM    DATA     BIT       P51
      00000088H   SFRSYM    DATA     BYTE      TCON
      000000C8H.0 SFRSYM    DATA     BIT       P50
      00000098H   SFRSYM    DATA     BYTE      SCON
      000000B8H   SFRSYM    DATA     BYTE      IP
      000000A8H   SFRSYM    DATA     BYTE      IE
      000000F8H   SFRSYM    DATA     BYTE      P7
      000000E8H   SFRSYM    DATA     BYTE      P6
      000000C8H   SFRSYM    DATA     BYTE      P5
      000000C0H   SFRSYM    DATA     BYTE      P4
      000000B0H   SFRSYM    DATA     BYTE      P3
      000000A0H   SFRSYM    DATA     BYTE      P2
      00000090H   SFRSYM    DATA     BYTE      P1
      00000080H   SFRSYM    DATA     BYTE      P0
      REG=3       REGSYM    ---      ---       dat
      R15         REGSYM    ---      BYTE      i

      ---         MODULE    ---      ---       SEEKFREE_VIRSCO
      000006A2H   PUBLIC    EDATA    ---       virtual_scope_data
      000000D0H   SFRSYM    DATA     BYTE      PSW
L251 LINKER/LOCATER V4.66.93.0                                                        07/17/2022  02:20:12  PAGE 60


      00000088H   SFRSYM    DATA     BYTE      TCON
      00000098H   SFRSYM    DATA     BYTE      SCON
      000000B8H   SFRSYM    DATA     BYTE      IP
      000000A8H   SFRSYM    DATA     BYTE      IE
      000000F8H   SFRSYM    DATA     BYTE      P7
      000000E8H   SFRSYM    DATA     BYTE      P6
      000000C8H   SFRSYM    DATA     BYTE      P5
      000000C0H   SFRSYM    DATA     BYTE      P4
      000000B0H   SFRSYM    DATA     BYTE      P3
      000000A0H   SFRSYM    DATA     BYTE      P2
      00000090H   SFRSYM    DATA     BYTE      P1
      00000080H   SFRSYM    DATA     BYTE      P0
      REG=7       REGSYM    ---      ---       Buf
      R10         REGSYM    ---      BYTE      CRC_CNT
      WR6         REGSYM    ---      WORD      CRC_Temp
      R5          REGSYM    ---      BYTE      i
      R4          REGSYM    ---      BYTE      j
      WR0         REGSYM    ---      INT       data1
      WR30        REGSYM    ---      INT       data2
      WR8         REGSYM    ---      INT       data3
      WR10        REGSYM    ---      INT       data4
      WR6         REGSYM    ---      WORD      CRC16

      ---         MODULE    ---      ---       SEEKFREE_WIRELESS
      000000D0H   SFRSYM    DATA     BYTE      PSW
      000000BDH   SFRSYM    DATA     BYTE      S4BUF
      00000080H.7 SFRSYM    DATA     BIT       P07
      00000088H   SFRSYM    DATA     BYTE      TCON
      00000098H   SFRSYM    DATA     BYTE      SCON
      000000B8H   SFRSYM    DATA     BYTE      IP
      000000A8H   SFRSYM    DATA     BYTE      IE
      000000F8H   SFRSYM    DATA     BYTE      P7
      000000E8H   SFRSYM    DATA     BYTE      P6
      000000C8H   SFRSYM    DATA     BYTE      P5
      000000C0H   SFRSYM    DATA     BYTE      P4
      000000B0H   SFRSYM    DATA     BYTE      P3
      000000A0H   SFRSYM    DATA     BYTE      P2
      00000090H   SFRSYM    DATA     BYTE      P1
      00000080H   SFRSYM    DATA     BYTE      P0
      REG=3       REGSYM    ---      ---       buff

      ---         MODULE    ---      ---       SEEKFREE_AT24C02
      00FF537DH   PUBLIC    CODE     ---       at24c02_read_uint16
      00FF5557H   PUBLIC    CODE     ---       at24c02_read_byte
      00FF52F2H   PUBLIC    CODE     ---       at24c02_write_uint16
      00FF0066H   PUBLIC    CODE     ---       at24c02_write_byte
      000000D0H   SFRSYM    DATA     BYTE      PSW
      00000088H   SFRSYM    DATA     BYTE      TCON
      00000098H   SFRSYM    DATA     BYTE      SCON
      000000B8H   SFRSYM    DATA     BYTE      IP
      000000A8H   SFRSYM    DATA     BYTE      IE
      000000F8H   SFRSYM    DATA     BYTE      P7
      000000E8H   SFRSYM    DATA     BYTE      P6
      000000C8H   SFRSYM    DATA     BYTE      P5
      000000C0H   SFRSYM    DATA     BYTE      P4
      000000B0H   SFRSYM    DATA     BYTE      P3
      000000A0H   SFRSYM    DATA     BYTE      P2
      00000090H   SFRSYM    DATA     BYTE      P1
      00000080H   SFRSYM    DATA     BYTE      P0

      00FF0066H   BLOCK     CODE     ---       LVL=0
      R14         REGSYM    ---      BYTE      byte_reg
      R15         REGSYM    ---      BYTE      dat
      00FF0066H   LINE      CODE     ---       #35
      00FF006CH   LINE      CODE     ---       #37
L251 LINKER/LOCATER V4.66.93.0                                                        07/17/2022  02:20:12  PAGE 61


      00FF0073H   LINE      CODE     ---       #38
      00FF007CH   LINE      CODE     ---       #39
      ---         BLOCKEND  ---      ---       LVL=0

      00FF52F2H   BLOCK     CODE     ---       LVL=0
      R13         REGSYM    ---      BYTE      byte_reg
      WR14        REGSYM    ---      WORD      dat
      00FF52F2H   LINE      CODE     ---       #41
      00FF52FAH   LINE      CODE     ---       #43
      00FF5301H   LINE      CODE     ---       #44
      00FF530AH   LINE      CODE     ---       #45
      00FF5311H   LINE      CODE     ---       #46
      00FF531CH   LINE      CODE     ---       #47
      ---         BLOCKEND  ---      ---       LVL=0

      00FF5557H   BLOCK     CODE     ---       LVL=0
      R15         REGSYM    ---      BYTE      byte_reg
      00FF5557H   LINE      CODE     ---       #57
      00FF555BH   LINE      CODE     ---       #59
      00FF5562H   LINE      CODE     ---       #60
      00FF556BH   LINE      CODE     ---       #61
      ---         BLOCKEND  ---      ---       LVL=0

      00FF537DH   BLOCK     CODE     ---       LVL=0
      R15         REGSYM    ---      BYTE      byte_reg
      00FF5383H   BLOCK     CODE     NEAR LAB  LVL=1
      WR12        REGSYM    ---      WORD      val
      ---         BLOCKEND  ---      ---       LVL=1
      00FF537DH   LINE      CODE     ---       #63
      00FF5383H   LINE      CODE     ---       #64
      00FF5383H   LINE      CODE     ---       #65
      00FF5383H   LINE      CODE     ---       #66
      00FF538AH   LINE      CODE     ---       #67
      00FF5395H   LINE      CODE     ---       #68
      00FF53A4H   LINE      CODE     ---       #69
      00FF53A6H   LINE      CODE     ---       #70
      ---         BLOCKEND  ---      ---       LVL=0
      REG=3       REGSYM    ---      ---       dat_add
      REG=3       REGSYM    ---      ---       dat_add

      ---         MODULE    ---      ---       SEEKFREE_BLUETOOTH_CH9141
      000005FDH   PUBLIC    EDATA    BYTE      bluetooth_ch9141_rx_buffer
      000005FEH   PUBLIC    EDATA    BYTE      at_mode_num
      000005FFH   PUBLIC    EDATA    BYTE      uart_flag
      00000600H   PUBLIC    EDATA    ---       uart_data
      00000605H   PUBLIC    EDATA    CHAR      res
      00000606H   PUBLIC    EDATA    ---       at_mode_data
      00000624H   PUBLIC    EDATA    WORD      uart_data_len
      00000626H   PUBLIC    EDATA    BYTE      at_mode
      00000627H   PUBLIC    EDATA    BYTE      at_mode_cmd_flag
      00000628H   PUBLIC    EDATA    ---       mac_address
      000000D0H   SFRSYM    DATA     BYTE      PSW
      000000BDH   SFRSYM    DATA     BYTE      S4BUF
      000000F8H.5 SFRSYM    DATA     BIT       P75
      00000088H   SFRSYM    DATA     BYTE      TCON
      00000098H   SFRSYM    DATA     BYTE      SCON
      000000B8H   SFRSYM    DATA     BYTE      IP
      000000A8H   SFRSYM    DATA     BYTE      IE
      000000F8H   SFRSYM    DATA     BYTE      P7
      000000E8H   SFRSYM    DATA     BYTE      P6
      000000C8H   SFRSYM    DATA     BYTE      P5
      000000C0H   SFRSYM    DATA     BYTE      P4
      000000B0H   SFRSYM    DATA     BYTE      P3
      000000A0H   SFRSYM    DATA     BYTE      P2
      00000090H   SFRSYM    DATA     BYTE      P1
L251 LINKER/LOCATER V4.66.93.0                                                        07/17/2022  02:20:12  PAGE 62


      00000080H   SFRSYM    DATA     BYTE      P0
      00000639H   SYMBOL    EDATA    INT       i
      REG=7       REGSYM    ---      ---       str
      REG=3       REGSYM    ---      ---       dat
      WR6         REGSYM    ---      INT       tx_power
      WR6         REGSYM    ---      INT       mode
      WR14        REGSYM    ---      INT       mode
      WR6         REGSYM    ---      INT       ch9141_status
      REG=3       REGSYM    ---      ---       str
      R7          REGSYM    ---      BYTE      enable
      REG=3       REGSYM    ---      ---       password
      REG=2       REGSYM    ---      ---       mac_and_password
      REG=2       REGSYM    ---      ---       mac_and_password
      R3          REGSYM    ---      BYTE      i
      WR4         REGSYM    ---      WORD      length
      WR6         REGSYM    ---      INT       rssi
      DR12        REGSYM    ---      DWORD     len
      WR14        REGSYM    ---      INT       mode

      ---         MODULE    ---      ---       zf_fifo
      000000D0H   SFRSYM    DATA     BYTE      PSW
      00000088H   SFRSYM    DATA     BYTE      TCON
      00000098H   SFRSYM    DATA     BYTE      SCON
      000000B8H   SFRSYM    DATA     BYTE      IP
      000000A8H   SFRSYM    DATA     BYTE      IE
      000000F8H   SFRSYM    DATA     BYTE      P7
      000000E8H   SFRSYM    DATA     BYTE      P6
      000000C8H   SFRSYM    DATA     BYTE      P5
      000000C0H   SFRSYM    DATA     BYTE      P4
      000000B0H   SFRSYM    DATA     BYTE      P3
      000000A0H   SFRSYM    DATA     BYTE      P2
      00000090H   SFRSYM    DATA     BYTE      P1
      00000080H   SFRSYM    DATA     BYTE      P0
      REG=2       REGSYM    ---      ---       fifo
      REG=7       REGSYM    ---      ---       buffer_addr
      REG=7       REGSYM    ---      ---       fifo
      DR24        REGSYM    ---      DWORD     offset
      REG=7       REGSYM    ---      ---       fifo
      DR24        REGSYM    ---      DWORD     offset
      REG=2       REGSYM    ---      ---       fifo
      REG=7       REGSYM    ---      ---       fifo
      REG=3       REGSYM    ---      ---       fifo
      REG=3       REGSYM    ---      ---       fifo

      ---         MODULE    ---      ---       isr
      00FF50FDH   PUBLIC    CODE     ---       UART1_Isr
      00FF5522H   PUBLIC    CODE     ---       UART2_Isr
      00FF5454H   PUBLIC    CODE     ---       UART3_Isr
      00FF4E06H   PUBLIC    CODE     ---       UART4_Isr
      00FF5503H   PUBLIC    CODE     ---       err_in_cross
      00FF4FF8H   PUBLIC    CODE     ---       Turn_control
      00FF4A6CH   PUBLIC    CODE     ---       Descent_handle
      00FF25B8H   PUBLIC    CODE     ---       view_0_handle
      00FF1A28H   PUBLIC    CODE     ---       view_1_handle
      00FF221FH   PUBLIC    CODE     ---       view_2_handle
      00FF2CBFH   PUBLIC    CODE     ---       view_3_handle
      00FF430CH   PUBLIC    CODE     ---       Read_ADC
      00FF547BH   PUBLIC    CODE     ---       INT0_Isr
      00FF55C1H   PUBLIC    CODE     ---       INT1_Isr
      00FF557FH   PUBLIC    CODE     ---       INT2_Isr
      00FF503CH   PUBLIC    CODE     ---       Split_Ultrasonic_callback
      00FF5590H   PUBLIC    CODE     ---       INT3_Isr
      00FF55DAH   PUBLIC    CODE     ---       INT4_Isr
      00FF4009H   PUBLIC    CODE     ---       Fork_Lhandle
      00FF4DA2H   PUBLIC    CODE     ---       err_get_f
L251 LINKER/LOCATER V4.66.93.0                                                        07/17/2022  02:20:12  PAGE 63


      00FF448AH   PUBLIC    CODE     ---       Fork_Rhandle
      00FF4CB4H   PUBLIC    CODE     ---       Normal_handle
      00FF37D4H   PUBLIC    CODE     ---       show_dirve
      00FF54E3H   PUBLIC    CODE     ---       key_read
      00FF46F3H   PUBLIC    CODE     ---       Date_analyse
      00FF14DAH   PUBLIC    CODE     ---       ADV_Init
      00FF294DH   PUBLIC    CODE     ---       Round_handle
      00FF3A18H   PUBLIC    CODE     ---       Cross_handle
      00FF000AH   PUBLIC    CODE     ---       TM0_Isr
      00FF0012H   PUBLIC    CODE     ---       TM1_Isr
      00FF528FH   PUBLIC    CODE     ---       TM2_Isr
      00FF55E2H   PUBLIC    CODE     ---       TM3_Isr
      00FF3546H   PUBLIC    CODE     ---       TM4_Isr
      00FF5222H   PUBLIC    CODE     ---       Control
      00FF4F14H   PUBLIC    CODE     ---       TFTLCD_show
      00FF52C2H   PUBLIC    CODE     ---       Star_handle
      00FF5175H   PUBLIC    CODE     ---       err_get
      00FF418BH   PUBLIC    CODE     ---       shibie
      00FF51AFH   PUBLIC    CODE     ---       err_get_cross
      00000008H   PUBLIC    EDATA    INT       circle_out_max_cnt
      0000000AH   PUBLIC    EDATA    FLOAT     chashu
      0000000EH   PUBLIC    EDATA    INT       fork_cnt_max
      00000010H   PUBLIC    EDATA    INT       beishu
      00000012H   PUBLIC    EDATA    WORD      max_bianhua
      00000014H   PUBLIC    EDATA    ---       AD
      0000002AH   PUBLIC    EDATA    ---       sensor_to_one
      00000056H   PUBLIC    EDATA    ---       circles_size
      00000062H   PUBLIC    EDATA    FLOAT     Circle_S
      00000066H   PUBLIC    EDATA    INT       MotorDutyL
      00000068H   PUBLIC    EDATA    INT       timeout
      0000006AH   PUBLIC    EDATA    CHAR      match_flag
      0000006BH   PUBLIC    EDATA    INT       Descent_Process
      0000006DH   PUBLIC    EDATA    INT       MotorDutyR
      0000006FH   PUBLIC    EDATA    CHAR      match
      00000070H   PUBLIC    EDATA    CHAR      Compensate_flag
      00000071H   PUBLIC    EDATA    ---       circle_size
      00000077H   PUBLIC    EDATA    FLOAT     Normal_H
      0000007BH   PUBLIC    EDATA    ---       temp_circle_run_p
      0000008BH   PUBLIC    EDATA    INT       ad3_grow_flag
      0000008DH   PUBLIC    EDATA    FLOAT     cross2_out
      00000091H   PUBLIC    EDATA    INT       min_v
      00000093H   PUBLIC    EDATA    INT       circle_max
      00000095H   PUBLIC    EDATA    ---       max_v
      000000ABH   PUBLIC    EDATA    FLOAT     Normal_S
      000000AFH   PUBLIC    EDATA    ---       max_fork_h
      000000B7H   PUBLIC    EDATA    DWORD     clkk
      000000BBH   PUBLIC    EDATA    WORD      time_5ms
      000000BDH   PUBLIC    EDATA    INT       GoalPulseLL
      000000BFH   PUBLIC    EDATA    INT       count
      000000C1H   PUBLIC    EDATA    CHAR      fork_flag
      000000C2H   PUBLIC    EDATA    INT       Normal_Process
      000000C4H   PUBLIC    EDATA    FLOAT     input
      000000C8H   PUBLIC    EDATA    FLOAT     Cross_H
      000000CCH   PUBLIC    EDATA    INT       cross_run_p
      000000CEH   PUBLIC    EDATA    INT       GoalPulseRR
      000000D0H   PUBLIC    EDATA    INT       flag_star
      000000D2H   PUBLIC    EDATA    ---       AD_V
      000000E8H   PUBLIC    EDATA    INT       ServoDuty
      000000EAH   PUBLIC    EDATA    BYTE      view
      000000EBH   PUBLIC    EDATA    BYTE      dis_flag
      000000ECH   PUBLIC    EDATA    INT       cross1_in_max
      000000EEH   PUBLIC    EDATA    FLOAT     ADC_Compensate
      000000F2H   PUBLIC    EDATA    FLOAT     Cross_S
      000000F6H   PUBLIC    EDATA    INT       cross2_in_max
      000000F8H   PUBLIC    EDATA    INT       Cross_sum
L251 LINKER/LOCATER V4.66.93.0                                                        07/17/2022  02:20:12  PAGE 64


      000000FAH   PUBLIC    EDATA    WORD      distances
      000000FCH   PUBLIC    EDATA    LONG      cnt
      00000100H   PUBLIC    EDATA    CHAR      adc_get_flag
      00000101H   PUBLIC    EDATA    CHAR      adc_get
      00000102H   PUBLIC    EDATA    FLOAT     f_tanA
      00000106H   PUBLIC    EDATA    ---       temp_cross_run_p
      00000116H   PUBLIC    EDATA    INT       Round_Process
      00000118H   PUBLIC    EDATA    WORD      distance
      0000011AH   PUBLIC    EDATA    INT       Cross_Process
      0000011CH   PUBLIC    EDATA    CHAR      cnt_left
      0000011DH   PUBLIC    EDATA    INT       cross_cnt
      0000011FH   PUBLIC    EDATA    INT       circle_in_cnt
      00000121H   PUBLIC    EDATA    ---       temp_ADC_Compensate
      00000141H   PUBLIC    EDATA    ---       temp_cross1_in_max
      00000151H   PUBLIC    EDATA    INT       circle_out_max
      00000153H   PUBLIC    EDATA    INT       circle_in_max_right
      00000155H   PUBLIC    EDATA    INT       fork_back_side_max
      00000157H   PUBLIC    EDATA    INT       PulseL
      00000159H   PUBLIC    EDATA    INT       Fork_Process
      0000015BH   PUBLIC    EDATA    ---       temp_cross2_in_max
      0000016BH   PUBLIC    EDATA    INT       Position
      0000016DH   PUBLIC    EDATA    INT       fork_max
      0000016FH   PUBLIC    EDATA    WORD      max_dig
      00000171H   PUBLIC    EDATA    INT       GoalPulseL
      00000173H   PUBLIC    EDATA    INT       PulseR
      00000175H   PUBLIC    EDATA    INT       Speed_target
      00000177H   PUBLIC    EDATA    INT       fork_turn
      00000179H   PUBLIC    EDATA    ---       txt
      000001A1H   PUBLIC    EDATA    ---       temp_normal_kp
      000001B1H   PUBLIC    EDATA    INT       fork_side_min
      000001B3H   PUBLIC    EDATA    CHAR      cnt_star
      000001B4H   PUBLIC    EDATA    INT       circle_in_max_left
      000001B6H   PUBLIC    EDATA    INT       fork_side_max
      000001B8H   PUBLIC    EDATA    FLOAT     input1
      000001BCH   PUBLIC    EDATA    FLOAT     f_duoji
      000001C0H   PUBLIC    EDATA    INT       GoalPulseR
      000001C2H   PUBLIC    EDATA    CHAR      cirlces_flag
      000001C3H   PUBLIC    EDATA    INT       dig1
      000001C5H   PUBLIC    EDATA    INT       dig2
      000001C7H   PUBLIC    EDATA    INT       dig3
      000001C9H   PUBLIC    EDATA    INT       dig4
      000001CBH   PUBLIC    EDATA    INT       fork_back_mid_max
      000001CDH   PUBLIC    EDATA    INT       dig_sum
      000001CFH   PUBLIC    EDATA    ---       temp_circle_in_max_right
      000001DFH   PUBLIC    EDATA    INT       circle_before_cnt
      000001E1H   PUBLIC    EDATA    INT       circle
      000001E3H   PUBLIC    EDATA    INT       fork_mid_min
      000001E5H   PUBLIC    EDATA    INT       error_dig4
      000001E7H   PUBLIC    EDATA    INT       fork_mid_max
      000001E9H   PUBLIC    EDATA    ---       temp_fork_turn
      000001F9H   PUBLIC    EDATA    INT       cross_cnt_max
      000001FBH   PUBLIC    EDATA    INT       circle_run_max_cnt
      000001FDH   PUBLIC    EDATA    CHAR      chashu_flag
      000001FEH   PUBLIC    EDATA    FLOAT     Circle_H
      00000202H   PUBLIC    EDATA    INT       circle_run_p
      000000D0H   SFRSYM    DATA     BYTE      PSW
      000000DAH   SFRSYM    DATA     BYTE      AUXINTIF
      000000BCH   SFRSYM    DATA     BYTE      S4CON
      000000E5H   SFRSYM    DATA     BYTE      S3CON
      000000E3H   SFRSYM    DATA     BYTE      S2CON
      000000BDH   SFRSYM    DATA     BYTE      S4BUF
      000000E6H   SFRSYM    DATA     BYTE      S3BUF
      000000C7H   SFRSYM    DATA     BYTE      IAP_CONTR
      000000C0H.6 SFRSYM    DATA     BIT       P46
      000000C0H.5 SFRSYM    DATA     BIT       P45
L251 LINKER/LOCATER V4.66.93.0                                                        07/17/2022  02:20:12  PAGE 65


      000000E8H.3 SFRSYM    DATA     BIT       P63
      000000C0H.4 SFRSYM    DATA     BIT       P44
      000000C8H.3 SFRSYM    DATA     BIT       P53
      000000C8H.2 SFRSYM    DATA     BIT       P52
      000000B0H.3 SFRSYM    DATA     BIT       P33
      00000088H   SFRSYM    DATA     BYTE      TCON
      000000B0H.2 SFRSYM    DATA     BIT       P32
      00000098H   SFRSYM    DATA     BYTE      SCON
      00000099H   SFRSYM    DATA     BYTE      SBUF
      000000B8H   SFRSYM    DATA     BYTE      IP
      000000A8H   SFRSYM    DATA     BYTE      IE
      000000F8H   SFRSYM    DATA     BYTE      P7
      000000E8H   SFRSYM    DATA     BYTE      P6
      000000C8H   SFRSYM    DATA     BYTE      P5
      000000C0H   SFRSYM    DATA     BYTE      P4
      000000B0H   SFRSYM    DATA     BYTE      P3
      000000A0H   SFRSYM    DATA     BYTE      P2
      00000090H   SFRSYM    DATA     BYTE      P1
      00000080H   SFRSYM    DATA     BYTE      P0
      00FF5B6AH   SYMBOL    HCONST   ---       ?tpl?0001

      00FF50FDH   BLOCK     CODE     ---       LVL=0
      00FF5101H   BLOCK     CODE     NEAR LAB  LVL=1
      R11         REGSYM    ---      BYTE      res
      00000204H   SYMBOL    EDATA    BYTE      dwon_count
      ---         BLOCKEND  ---      ---       LVL=1
      00FF50FDH   LINE      CODE     ---       #169
      00FF5101H   LINE      CODE     ---       #170
      00FF5101H   LINE      CODE     ---       #173
      00FF5106H   LINE      CODE     ---       #175
      00FF5109H   LINE      CODE     ---       #176
      00FF510EH   LINE      CODE     ---       #177
      00FF510EH   LINE      CODE     ---       #178
      00FF5113H   LINE      CODE     ---       #180
      00FF5116H   LINE      CODE     ---       #181
      00FF5118H   LINE      CODE     ---       #183
      00FF511BH   LINE      CODE     ---       #185
      00FF512BH   LINE      CODE     ---       #186
      00FF512EH   LINE      CODE     ---       #187
      00FF5130H   LINE      CODE     ---       #190
      00FF5135H   LINE      CODE     ---       #191
      00FF5135H   LINE      CODE     ---       #192
      ---         BLOCKEND  ---      ---       LVL=0

      00FF5522H   BLOCK     CODE     ---       LVL=0
      00FF5522H   LINE      CODE     ---       #194
      00FF5526H   LINE      CODE     ---       #196
      00FF552BH   LINE      CODE     ---       #198
      00FF552EH   LINE      CODE     ---       #199
      00FF5533H   LINE      CODE     ---       #200
      00FF5533H   LINE      CODE     ---       #201
      00FF5538H   LINE      CODE     ---       #203
      00FF553BH   LINE      CODE     ---       #205
      ---         BLOCKEND  ---      ---       LVL=0

      00FF503CH   BLOCK     CODE     ---       LVL=0
      R7          REGSYM    ---      BYTE      buf
      00FF503EH   BLOCK     CODE     NEAR LAB  LVL=1
      00000205H   SYMBOL    EDATA    ---       dat
      00000208H   SYMBOL    EDATA    BYTE      num
      ---         BLOCKEND  ---      ---       LVL=1
      00FF503CH   LINE      CODE     ---       #208
      00FF503EH   LINE      CODE     ---       #209
      00FF503EH   LINE      CODE     ---       #213
      00FF5044H   LINE      CODE     ---       #215
L251 LINKER/LOCATER V4.66.93.0                                                        07/17/2022  02:20:12  PAGE 66


      00FF504EH   LINE      CODE     ---       #216
      00FF505AH   LINE      CODE     ---       #217
      00FF5061H   LINE      CODE     ---       #219
      00FF5064H   LINE      CODE     ---       #221
      00FF5069H   LINE      CODE     ---       #223
      00FF5079H   LINE      CODE     ---       #224
      00FF507DH   LINE      CODE     ---       #225
      00FF507DH   LINE      CODE     ---       #227
      ---         BLOCKEND  ---      ---       LVL=0

      00FF5454H   BLOCK     CODE     ---       LVL=0
      00FF5454H   LINE      CODE     ---       #228
      00FF545AH   LINE      CODE     ---       #230
      00FF545FH   LINE      CODE     ---       #232
      00FF5462H   LINE      CODE     ---       #233
      00FF5467H   LINE      CODE     ---       #234
      00FF5467H   LINE      CODE     ---       #235
      00FF546CH   LINE      CODE     ---       #237
      00FF546FH   LINE      CODE     ---       #239
      00FF5474H   LINE      CODE     ---       #240
      ---         BLOCKEND  ---      ---       LVL=0

      00FF4E06H   BLOCK     CODE     ---       LVL=0
      00FF4E06H   LINE      CODE     ---       #243
      00FF4E1CH   LINE      CODE     ---       #245
      00FF4E21H   LINE      CODE     ---       #247
      00FF4E24H   LINE      CODE     ---       #248
      00FF4E29H   LINE      CODE     ---       #249
      00FF4E29H   LINE      CODE     ---       #250
      00FF4E2EH   LINE      CODE     ---       #252
      00FF4E31H   LINE      CODE     ---       #254
      00FF4E3BH   LINE      CODE     ---       #256
      00FF4E41H   LINE      CODE     ---       #257
      00FF4E48H   LINE      CODE     ---       #259
      00FF4E4EH   LINE      CODE     ---       #260
      00FF4E51H   LINE      CODE     ---       #261
      00FF4E51H   LINE      CODE     ---       #263
      00FF4E51H   LINE      CODE     ---       #264
      00FF4E51H   LINE      CODE     ---       #265
      ---         BLOCKEND  ---      ---       LVL=0

      00FF547BH   BLOCK     CODE     ---       LVL=0
      00FF547BH   LINE      CODE     ---       #266
      00FF547FH   LINE      CODE     ---       #268
      00FF5488H   LINE      CODE     ---       #269
      00FF5490H   LINE      CODE     ---       #270
      00FF5494H   LINE      CODE     ---       #271
      00FF549CH   LINE      CODE     ---       #272
      ---         BLOCKEND  ---      ---       LVL=0

      00FF55C1H   BLOCK     CODE     ---       LVL=0
      00FF55C1H   LINE      CODE     ---       #273
      00FF55C3H   LINE      CODE     ---       #276
      00FF55CCH   LINE      CODE     ---       #277
      ---         BLOCKEND  ---      ---       LVL=0

      00FF557FH   BLOCK     CODE     ---       LVL=0
      00FF557FH   LINE      CODE     ---       #278
      00FF5581H   LINE      CODE     ---       #280
      00FF558AH   LINE      CODE     ---       #284
      00FF558DH   LINE      CODE     ---       #285
      ---         BLOCKEND  ---      ---       LVL=0

      00FF5590H   BLOCK     CODE     ---       LVL=0
      00FF5590H   LINE      CODE     ---       #286
L251 LINKER/LOCATER V4.66.93.0                                                        07/17/2022  02:20:12  PAGE 67


      00FF5592H   LINE      CODE     ---       #288
      00FF559BH   LINE      CODE     ---       #291
      00FF559EH   LINE      CODE     ---       #292
      ---         BLOCKEND  ---      ---       LVL=0

      00FF55DAH   BLOCK     CODE     ---       LVL=0
      00FF55DAH   LINE      CODE     ---       #294
      00FF55DCH   LINE      CODE     ---       #296
      00FF55DFH   LINE      CODE     ---       #297
      ---         BLOCKEND  ---      ---       LVL=0

      00FF14DAH   BLOCK     CODE     ---       LVL=0
      00FF14DCH   BLOCK     CODE     NEAR LAB  LVL=1
      000005ABH   SYMBOL    EDATA    ---       txt
      WR14        REGSYM    ---      INT       i
      WR12        REGSYM    ---      INT       j
      000005BFH   SYMBOL    EDATA    ---       ad_valu
      ---         BLOCKEND  ---      ---       LVL=1
      00FF14DAH   LINE      CODE     ---       #301
      00FF14DCH   LINE      CODE     ---       #302
      00FF14DCH   LINE      CODE     ---       #304
      00FF14DCH   LINE      CODE     ---       #305
      00FF14EDH   LINE      CODE     ---       #307
      00FF14F5H   LINE      CODE     ---       #308
      00FF14FEH   LINE      CODE     ---       #309
      00FF1504H   LINE      CODE     ---       #311
      00FF1506H   LINE      CODE     ---       #313
      00FF1517H   LINE      CODE     ---       #314
      00FF151EH   LINE      CODE     ---       #315
      00FF1526H   LINE      CODE     ---       #316
      00FF1526H   LINE      CODE     ---       #318
      00FF152FH   LINE      CODE     ---       #319
      00FF1538H   LINE      CODE     ---       #320
      00FF1541H   LINE      CODE     ---       #321
      00FF154AH   LINE      CODE     ---       #322
      00FF1562H   LINE      CODE     ---       #323
      00FF156BH   LINE      CODE     ---       #325
      00FF1583H   LINE      CODE     ---       #326
      00FF158CH   LINE      CODE     ---       #327
      00FF1595H   LINE      CODE     ---       #328
      00FF15ADH   LINE      CODE     ---       #329
      00FF15B6H   LINE      CODE     ---       #330
      00FF15BFH   LINE      CODE     ---       #331
      00FF15D7H   LINE      CODE     ---       #332
      00FF15E0H   LINE      CODE     ---       #345
      00FF15E9H   LINE      CODE     ---       #346
      00FF15F2H   LINE      CODE     ---       #347
      00FF15FBH   LINE      CODE     ---       #348
      00FF1604H   LINE      CODE     ---       #349
      00FF160DH   LINE      CODE     ---       #350
      00FF1616H   LINE      CODE     ---       #351
      00FF161FH   LINE      CODE     ---       #352
      00FF1637H   LINE      CODE     ---       #354
      00FF1640H   LINE      CODE     ---       #355
      00FF1649H   LINE      CODE     ---       #356
      00FF1652H   LINE      CODE     ---       #357
      00FF165BH   LINE      CODE     ---       #358
      00FF1664H   LINE      CODE     ---       #359
      00FF166DH   LINE      CODE     ---       #360
      00FF1676H   LINE      CODE     ---       #361
      00FF167FH   LINE      CODE     ---       #375
      00FF1681H   LINE      CODE     ---       #377
      00FF1694H   LINE      CODE     ---       #379
      00FF16A3H   LINE      CODE     ---       #380
      00FF16B2H   LINE      CODE     ---       #381
L251 LINKER/LOCATER V4.66.93.0                                                        07/17/2022  02:20:12  PAGE 68


      00FF16C1H   LINE      CODE     ---       #382
      00FF16D0H   LINE      CODE     ---       #383
      00FF16DFH   LINE      CODE     ---       #384
      00FF16EEH   LINE      CODE     ---       #385
      00FF170CH   LINE      CODE     ---       #386
      00FF171BH   LINE      CODE     ---       #387
      00FF1726H   LINE      CODE     ---       #390
      00FF1732H   LINE      CODE     ---       #392
      00FF1741H   LINE      CODE     ---       #393
      00FF1741H   LINE      CODE     ---       #395
      00FF1750H   LINE      CODE     ---       #396
      00FF175FH   LINE      CODE     ---       #397
      00FF176EH   LINE      CODE     ---       #398
      00FF177DH   LINE      CODE     ---       #399
      00FF178CH   LINE      CODE     ---       #400
      00FF179BH   LINE      CODE     ---       #401
      00FF17AAH   LINE      CODE     ---       #402
      00FF17B9H   LINE      CODE     ---       #403
      00FF17C6H   LINE      CODE     ---       #404
      00FF17D5H   LINE      CODE     ---       #405
      00FF17E4H   LINE      CODE     ---       #406
      00FF17E6H   LINE      CODE     ---       #408
      00FF17F6H   LINE      CODE     ---       #410
      00FF17FAH   LINE      CODE     ---       #411
      00FF1802H   LINE      CODE     ---       #413
      00FF1809H   LINE      CODE     ---       #414
      00FF1830H   LINE      CODE     ---       #415
      00FF183DH   LINE      CODE     ---       #416
      00FF185CH   LINE      CODE     ---       #417
      00FF1869H   LINE      CODE     ---       #418
      00FF1888H   LINE      CODE     ---       #419
      00FF1895H   LINE      CODE     ---       #420
      00FF18B4H   LINE      CODE     ---       #421
      00FF18C1H   LINE      CODE     ---       #422
      00FF18E0H   LINE      CODE     ---       #423
      00FF18EDH   LINE      CODE     ---       #424
      00FF18F4H   LINE      CODE     ---       #425
      00FF18FFH   LINE      CODE     ---       #426
      00FF18FFH   LINE      CODE     ---       #427
      00FF1901H   LINE      CODE     ---       #429
      00FF1910H   LINE      CODE     ---       #430
      00FF1917H   LINE      CODE     ---       #431
      00FF191FH   LINE      CODE     ---       #432
      00FF1923H   LINE      CODE     ---       #433
      00FF1926H   LINE      CODE     ---       #436
      00FF1935H   LINE      CODE     ---       #437
      00FF195CH   LINE      CODE     ---       #438
      00FF1969H   LINE      CODE     ---       #439
      00FF1988H   LINE      CODE     ---       #440
      00FF1995H   LINE      CODE     ---       #441
      00FF19B4H   LINE      CODE     ---       #442
      00FF19C1H   LINE      CODE     ---       #443
      00FF19E0H   LINE      CODE     ---       #444
      00FF19EDH   LINE      CODE     ---       #445
      00FF1A0CH   LINE      CODE     ---       #446
      00FF1A19H   LINE      CODE     ---       #447
      00FF1A20H   LINE      CODE     ---       #448
      00FF1A20H   LINE      CODE     ---       #449
      00FF1A25H   LINE      CODE     ---       #450
      ---         BLOCKEND  ---      ---       LVL=0

      00FF430CH   BLOCK     CODE     ---       LVL=0
      00000209H   SYMBOL    EDATA    INT       i
      0000020BH   SYMBOL    EDATA    ---       ad_valu_v
      00000221H   SYMBOL    EDATA    ---       ss
L251 LINKER/LOCATER V4.66.93.0                                                        07/17/2022  02:20:12  PAGE 69


      00FF430CH   LINE      CODE     ---       #454
      00FF430CH   LINE      CODE     ---       #455
      00FF430CH   LINE      CODE     ---       #460
      00FF431BH   LINE      CODE     ---       #461
      00FF432AH   LINE      CODE     ---       #462
      00FF4339H   LINE      CODE     ---       #463
      00FF4348H   LINE      CODE     ---       #464
      00FF4357H   LINE      CODE     ---       #465
      00FF4366H   LINE      CODE     ---       #466
      00FF4375H   LINE      CODE     ---       #468
      00FF4382H   LINE      CODE     ---       #469
      00FF4391H   LINE      CODE     ---       #471
      00FF4398H   LINE      CODE     ---       #473
      00FF43ABH   LINE      CODE     ---       #474
      00FF43BEH   LINE      CODE     ---       #475
      00FF43D1H   LINE      CODE     ---       #476
      00FF43E4H   LINE      CODE     ---       #477
      00FF43F7H   LINE      CODE     ---       #478
      00FF440AH   LINE      CODE     ---       #479
      00FF441DH   LINE      CODE     ---       #481
      00FF442EH   LINE      CODE     ---       #482
      00FF4441H   LINE      CODE     ---       #484
      00FF4458H   LINE      CODE     ---       #486
      00FF445EH   LINE      CODE     ---       #488
      00FF4479H   LINE      CODE     ---       #489
      00FF4489H   LINE      CODE     ---       #490
      ---         BLOCKEND  ---      ---       LVL=0

      00FF46F3H   BLOCK     CODE     ---       LVL=0
      00000233H   SYMBOL    EDATA    INT       i
      00000235H   SYMBOL    EDATA    ---       aa
      00000247H   SYMBOL    EDATA    INT       last_ad3
      00FF46F3H   LINE      CODE     ---       #492
      00FF46F3H   LINE      CODE     ---       #493
      00FF46F3H   LINE      CODE     ---       #497
      00FF46F6H   LINE      CODE     ---       #498
      00FF46FFH   LINE      CODE     ---       #500
      00FF4736H   LINE      CODE     ---       #501
      00FF4755H   LINE      CODE     ---       #502
      00FF4772H   LINE      CODE     ---       #503
      00FF478AH   LINE      CODE     ---       #504
      00FF47A1H   LINE      CODE     ---       #532
      00FF47ABH   LINE      CODE     ---       #534
      00FF47B3H   LINE      CODE     ---       #535
      00FF47B5H   LINE      CODE     ---       #538
      00FF47B9H   LINE      CODE     ---       #539
      00FF47B9H   LINE      CODE     ---       #540
      00FF47C1H   LINE      CODE     ---       #543
      ---         BLOCKEND  ---      ---       LVL=0

      00FF000AH   BLOCK     CODE     ---       LVL=0
      00FF000AH   LINE      CODE     ---       #544
      00FF000AH   LINE      CODE     ---       #546
      ---         BLOCKEND  ---      ---       LVL=0

      00FF0012H   BLOCK     CODE     ---       LVL=0
      00FF0012H   LINE      CODE     ---       #547
      00FF0012H   LINE      CODE     ---       #549
      ---         BLOCKEND  ---      ---       LVL=0

      00FF528FH   BLOCK     CODE     ---       LVL=0
      00FF528FH   LINE      CODE     ---       #550
      00FF52A5H   LINE      CODE     ---       #552
      00FF52A8H   LINE      CODE     ---       #553
      00FF52ABH   LINE      CODE     ---       #554
L251 LINKER/LOCATER V4.66.93.0                                                        07/17/2022  02:20:12  PAGE 70


      ---         BLOCKEND  ---      ---       LVL=0

      00FF55E2H   BLOCK     CODE     ---       LVL=0
      00FF55E2H   LINE      CODE     ---       #555
      00FF55E4H   LINE      CODE     ---       #557
      00FF55E7H   LINE      CODE     ---       #558
      ---         BLOCKEND  ---      ---       LVL=0

      00FF3546H   BLOCK     CODE     ---       LVL=0
      00FF355CH   BLOCK     CODE     NEAR LAB  LVL=1
      00000249H   SYMBOL    EDATA    INT       flag
      0000024BH   SYMBOL    EDATA    INT       time_50ms
      ---         BLOCKEND  ---      ---       LVL=1
      00FF3546H   LINE      CODE     ---       #562
      00FF355CH   LINE      CODE     ---       #563
      00FF355CH   LINE      CODE     ---       #567
      00FF3570H   LINE      CODE     ---       #569
      00FF357AH   LINE      CODE     ---       #570
      00FF3586H   LINE      CODE     ---       #572
      00FF358CH   LINE      CODE     ---       #573
      00FF3590H   LINE      CODE     ---       #575
      00FF3592H   LINE      CODE     ---       #576
      00FF3598H   LINE      CODE     ---       #578
      00FF359EH   LINE      CODE     ---       #579
      00FF359EH   LINE      CODE     ---       #581
      00FF35A7H   LINE      CODE     ---       #582
      00FF35B8H   LINE      CODE     ---       #583
      00FF35BEH   LINE      CODE     ---       #585
      00FF35C4H   LINE      CODE     ---       #587
      00FF35C8H   LINE      CODE     ---       #588
      00FF35CAH   LINE      CODE     ---       #591
      00FF35DCH   LINE      CODE     ---       #592
      00FF35DCH   LINE      CODE     ---       #593
      00FF35DCH   LINE      CODE     ---       #594
      00FF35E5H   LINE      CODE     ---       #596
      00FF3601H   LINE      CODE     ---       #597
      00FF3650H   LINE      CODE     ---       #598
      00FF3657H   LINE      CODE     ---       #600
      00FF3677H   LINE      CODE     ---       #601
      00FF3691H   LINE      CODE     ---       #602
      00FF3693H   LINE      CODE     ---       #605
      00FF36BEH   LINE      CODE     ---       #606
      00FF36DEH   LINE      CODE     ---       #607
      00FF36DEH   LINE      CODE     ---       #609
      00FF36E6H   LINE      CODE     ---       #611
      00FF36F5H   LINE      CODE     ---       #612
      00FF36FDH   LINE      CODE     ---       #613
      00FF36FFH   LINE      CODE     ---       #617
      00FF3707H   LINE      CODE     ---       #619
      00FF3716H   LINE      CODE     ---       #620
      00FF3725H   LINE      CODE     ---       #621
      00FF3725H   LINE      CODE     ---       #624
      00FF3733H   LINE      CODE     ---       #625
      00FF373FH   LINE      CODE     ---       #626
      00FF374DH   LINE      CODE     ---       #627
      00FF3759H   LINE      CODE     ---       #628
      00FF3761H   LINE      CODE     ---       #630
      00FF376BH   LINE      CODE     ---       #631
      00FF376BH   LINE      CODE     ---       #632
      00FF377AH   LINE      CODE     ---       #633
      00FF3789H   LINE      CODE     ---       #635
      00FF379DH   LINE      CODE     ---       #636
      00FF37ABH   LINE      CODE     ---       #637
      00FF37BAH   LINE      CODE     ---       #639
      00FF37BDH   LINE      CODE     ---       #641
L251 LINKER/LOCATER V4.66.93.0                                                        07/17/2022  02:20:12  PAGE 71


      ---         BLOCKEND  ---      ---       LVL=0

      00FF5222H   BLOCK     CODE     ---       LVL=0
      00FF5222H   LINE      CODE     ---       #642
      00FF5222H   LINE      CODE     ---       #644
      00FF5240H   LINE      CODE     ---       #646
      00FF5240H   LINE      CODE     ---       #648
      00FF5243H   LINE      CODE     ---       #649
      00FF5243H   LINE      CODE     ---       #651
      00FF5243H   LINE      CODE     ---       #653
      00FF5246H   LINE      CODE     ---       #654
      00FF5246H   LINE      CODE     ---       #656
      00FF5246H   LINE      CODE     ---       #658
      00FF5249H   LINE      CODE     ---       #659
      00FF5249H   LINE      CODE     ---       #661
      00FF5249H   LINE      CODE     ---       #663
      00FF524CH   LINE      CODE     ---       #664
      00FF524CH   LINE      CODE     ---       #666
      00FF524CH   LINE      CODE     ---       #668
      00FF524FH   LINE      CODE     ---       #669
      00FF524FH   LINE      CODE     ---       #671
      00FF524FH   LINE      CODE     ---       #673
      00FF5252H   LINE      CODE     ---       #674
      00FF5252H   LINE      CODE     ---       #676
      00FF5252H   LINE      CODE     ---       #678
      00FF525AH   LINE      CODE     ---       #679
      00FF525AH   LINE      CODE     ---       #681
      00FF525AH   LINE      CODE     ---       #682
      ---         BLOCKEND  ---      ---       LVL=0

      00FF4FF8H   BLOCK     CODE     ---       LVL=0
      00FF4FF8H   LINE      CODE     ---       #683
      00FF4FF8H   LINE      CODE     ---       #685
      00FF4FFBH   LINE      CODE     ---       #686
      00FF5005H   LINE      CODE     ---       #688
      00FF5008H   LINE      CODE     ---       #689
      00FF5008H   LINE      CODE     ---       #690
      00FF500BH   LINE      CODE     ---       #692
      00FF501FH   LINE      CODE     ---       #693
      00FF502DH   LINE      CODE     ---       #694
      ---         BLOCKEND  ---      ---       LVL=0

      00FF52C2H   BLOCK     CODE     ---       LVL=0
      00FF52C2H   LINE      CODE     ---       #696
      00FF52C2H   LINE      CODE     ---       #699
      00FF52CAH   LINE      CODE     ---       #700
      00FF52D0H   LINE      CODE     ---       #701
      00FF52D8H   LINE      CODE     ---       #702
      00FF52DCH   LINE      CODE     ---       #703
      00FF52E4H   LINE      CODE     ---       #704
      00FF52E8H   LINE      CODE     ---       #705
      00FF52EDH   LINE      CODE     ---       #706
      00FF52F1H   LINE      CODE     ---       #707
      ---         BLOCKEND  ---      ---       LVL=0

      00FF4DA2H   BLOCK     CODE     ---       LVL=0
      DR20        REGSYM    ---      FLOAT     A
      DR24        REGSYM    ---      FLOAT     B
      00FF4DA8H   BLOCK     CODE     NEAR LAB  LVL=1
      WR14        REGSYM    ---      WORD      temp_add1
      WR4         REGSYM    ---      WORD      temp_add2
      WR18        REGSYM    ---      WORD      temp_sub1
      WR16        REGSYM    ---      WORD      temp_sub2
      ---         BLOCKEND  ---      ---       LVL=1
      00FF4DA2H   LINE      CODE     ---       #708
L251 LINKER/LOCATER V4.66.93.0                                                        07/17/2022  02:20:12  PAGE 72


      00FF4DA8H   LINE      CODE     ---       #709
      00FF4DA8H   LINE      CODE     ---       #710
      00FF4DA8H   LINE      CODE     ---       #712
      00FF4DB2H   LINE      CODE     ---       #713
      00FF4DBAH   LINE      CODE     ---       #714
      00FF4DBEH   LINE      CODE     ---       #715
      00FF4DC6H   LINE      CODE     ---       #717
      00FF4E03H   LINE      CODE     ---       #718
      ---         BLOCKEND  ---      ---       LVL=0
      DR20        REGSYM    ---      FLOAT     A
      DR24        REGSYM    ---      FLOAT     B
      WR14        REGSYM    ---      INT       temp_add1
      WR4         REGSYM    ---      INT       temp_add2
      WR18        REGSYM    ---      INT       temp_sub1
      WR16        REGSYM    ---      INT       temp_sub2

      00FF5175H   BLOCK     CODE     ---       LVL=0
      00FF5175H   LINE      CODE     ---       #728
      00FF5177H   LINE      CODE     ---       #730
      00FF51ACH   LINE      CODE     ---       #731
      ---         BLOCKEND  ---      ---       LVL=0

      00FF51AFH   BLOCK     CODE     ---       LVL=0
      00FF51AFH   LINE      CODE     ---       #732
      00FF51B1H   LINE      CODE     ---       #734
      00FF51E6H   LINE      CODE     ---       #735
      ---         BLOCKEND  ---      ---       LVL=0

      00FF5503H   BLOCK     CODE     ---       LVL=0
      00FF5503H   LINE      CODE     ---       #736
      00FF5503H   LINE      CODE     ---       #738
      ---         BLOCKEND  ---      ---       LVL=0

      00FF4CB4H   BLOCK     CODE     ---       LVL=0
      00FF4CB4H   LINE      CODE     ---       #740
      00FF4CB4H   LINE      CODE     ---       #743
      00FF4CBAH   LINE      CODE     ---       #745
      00FF4CD7H   LINE      CODE     ---       #746
      00FF4CD7H   LINE      CODE     ---       #747
      00FF4CD9H   LINE      CODE     ---       #751
      00FF4CF3H   LINE      CODE     ---       #752
      00FF4D02H   LINE      CODE     ---       #754
      00FF4D02H   LINE      CODE     ---       #755
      00FF4D1CH   LINE      CODE     ---       #757
      00FF4D22H   LINE      CODE     ---       #758
      00FF4D28H   LINE      CODE     ---       #759
      00FF4D2DH   LINE      CODE     ---       #760
      00FF4D33H   LINE      CODE     ---       #761
      ---         BLOCKEND  ---      ---       LVL=0

      00FF294DH   BLOCK     CODE     ---       LVL=0
      00FF294FH   BLOCK     CODE     NEAR LAB  LVL=1
      0000024DH   SYMBOL    EDATA    FLOAT     dig
      00000251H   SYMBOL    EDATA    FLOAT     ADC_Compensate_temp
      ---         BLOCKEND  ---      ---       LVL=1
      00FF294DH   LINE      CODE     ---       #780
      00FF294FH   LINE      CODE     ---       #781
      00FF294FH   LINE      CODE     ---       #784
      00FF2984H   LINE      CODE     ---       #786
      00FF2984H   LINE      CODE     ---       #788
      00FF298AH   LINE      CODE     ---       #790
      00FF299AH   LINE      CODE     ---       #792
      00FF29A4H   LINE      CODE     ---       #794
      00FF29ACH   LINE      CODE     ---       #795
      00FF29B2H   LINE      CODE     ---       #796
L251 LINKER/LOCATER V4.66.93.0                                                        07/17/2022  02:20:12  PAGE 73


      00FF29B6H   LINE      CODE     ---       #797
      00FF29BCH   LINE      CODE     ---       #798
      00FF29D2H   LINE      CODE     ---       #799
      00FF29D2H   LINE      CODE     ---       #808
      00FF29D2H   LINE      CODE     ---       #809
      00FF29D2H   LINE      CODE     ---       #810
      00FF29D5H   LINE      CODE     ---       #811
      00FF29D8H   LINE      CODE     ---       #813
      00FF29D8H   LINE      CODE     ---       #815
      00FF29DEH   LINE      CODE     ---       #817
      00FF29EEH   LINE      CODE     ---       #819
      00FF29F6H   LINE      CODE     ---       #820
      00FF29FBH   LINE      CODE     ---       #821
      00FF2A03H   LINE      CODE     ---       #822
      00FF2A0FH   LINE      CODE     ---       #823
      00FF2A15H   LINE      CODE     ---       #824
      00FF2A1AH   LINE      CODE     ---       #825
      00FF2A20H   LINE      CODE     ---       #826
      00FF2A20H   LINE      CODE     ---       #828
      00FF2A47H   LINE      CODE     ---       #829
      00FF2A52H   LINE      CODE     ---       #830
      00FF2A55H   LINE      CODE     ---       #832
      00FF2A55H   LINE      CODE     ---       #835
      00FF2A99H   LINE      CODE     ---       #836
      00FF2AB7H   LINE      CODE     ---       #837
      00FF2ACAH   LINE      CODE     ---       #839
      00FF2AD7H   LINE      CODE     ---       #841
      00FF2ADFH   LINE      CODE     ---       #842
      00FF2AE5H   LINE      CODE     ---       #843
      00FF2AEDH   LINE      CODE     ---       #844
      00FF2AEDH   LINE      CODE     ---       #846
      00FF2AF0H   LINE      CODE     ---       #848
      00FF2AF0H   LINE      CODE     ---       #850
      00FF2B17H   LINE      CODE     ---       #851
      00FF2B26H   LINE      CODE     ---       #852
      00FF2B33H   LINE      CODE     ---       #854
      00FF2B38H   LINE      CODE     ---       #855
      00FF2B40H   LINE      CODE     ---       #856
      00FF2B40H   LINE      CODE     ---       #857
      00FF2B43H   LINE      CODE     ---       #860
      00FF2B43H   LINE      CODE     ---       #862
      00FF2B49H   LINE      CODE     ---       #864
      00FF2B59H   LINE      CODE     ---       #866
      00FF2B61H   LINE      CODE     ---       #870
      00FF2B67H   LINE      CODE     ---       #871
      00FF2B6DH   LINE      CODE     ---       #872
      00FF2B6DH   LINE      CODE     ---       #875
      00FF2B8EH   LINE      CODE     ---       #876
      00FF2BACH   LINE      CODE     ---       #880
      00FF2BAFH   LINE      CODE     ---       #882
      00FF2BAFH   LINE      CODE     ---       #884
      00FF2BC9H   LINE      CODE     ---       #885
      00FF2BD8H   LINE      CODE     ---       #889
      00FF2BEBH   LINE      CODE     ---       #891
      00FF2BF8H   LINE      CODE     ---       #893
      00FF2C00H   LINE      CODE     ---       #894
      00FF2C06H   LINE      CODE     ---       #896
      00FF2C0AH   LINE      CODE     ---       #897
      00FF2C10H   LINE      CODE     ---       #898
      00FF2C10H   LINE      CODE     ---       #900
      00FF2C13H   LINE      CODE     ---       #902
      00FF2C13H   LINE      CODE     ---       #904
      00FF2C2DH   LINE      CODE     ---       #905
      00FF2C3CH   LINE      CODE     ---       #906
      00FF2C4CH   LINE      CODE     ---       #908
L251 LINKER/LOCATER V4.66.93.0                                                        07/17/2022  02:20:12  PAGE 74


      00FF2C56H   LINE      CODE     ---       #910
      00FF2C5EH   LINE      CODE     ---       #911
      00FF2C63H   LINE      CODE     ---       #913
      00FF2C67H   LINE      CODE     ---       #915
      00FF2C69H   LINE      CODE     ---       #916
      00FF2C69H   LINE      CODE     ---       #918
      00FF2C69H   LINE      CODE     ---       #920
      00FF2C69H   LINE      CODE     ---       #929
      00FF2C7BH   LINE      CODE     ---       #930
      00FF2C96H   LINE      CODE     ---       #932
      00FF2CAAH   LINE      CODE     ---       #934
      00FF2CB2H   LINE      CODE     ---       #935
      00FF2CBCH   LINE      CODE     ---       #936
      00FF2CBCH   LINE      CODE     ---       #940
      00FF2CBCH   LINE      CODE     ---       #942
      00FF2CBCH   LINE      CODE     ---       #943
      ---         BLOCKEND  ---      ---       LVL=0

      00FF448AH   BLOCK     CODE     ---       LVL=0
      00FF448AH   LINE      CODE     ---       #945
      00FF448AH   LINE      CODE     ---       #947
      00FF44ACH   LINE      CODE     ---       #949
      00FF44ACH   LINE      CODE     ---       #951
      00FF44DDH   LINE      CODE     ---       #952
      00FF44FBH   LINE      CODE     ---       #953
      00FF450EH   LINE      CODE     ---       #955
      00FF4513H   LINE      CODE     ---       #956
      00FF4519H   LINE      CODE     ---       #957
      00FF4521H   LINE      CODE     ---       #958
      00FF4529H   LINE      CODE     ---       #959
      00FF452DH   LINE      CODE     ---       #960
      00FF452DH   LINE      CODE     ---       #961
      00FF452EH   LINE      CODE     ---       #963
      00FF452EH   LINE      CODE     ---       #967
      00FF453EH   LINE      CODE     ---       #968
      00FF454DH   LINE      CODE     ---       #969
      00FF455AH   LINE      CODE     ---       #971
      00FF4562H   LINE      CODE     ---       #972
      00FF4568H   LINE      CODE     ---       #973
      00FF4568H   LINE      CODE     ---       #974
      00FF4569H   LINE      CODE     ---       #976
      00FF4569H   LINE      CODE     ---       #979
      00FF459AH   LINE      CODE     ---       #980
      00FF45B8H   LINE      CODE     ---       #981
      00FF45C2H   LINE      CODE     ---       #982
      00FF45CAH   LINE      CODE     ---       #983
      00FF45CEH   LINE      CODE     ---       #984
      00FF45D6H   LINE      CODE     ---       #985
      00FF45DEH   LINE      CODE     ---       #986
      00FF45DEH   LINE      CODE     ---       #987
      00FF45DFH   LINE      CODE     ---       #989
      00FF45DFH   LINE      CODE     ---       #991
      00FF45E7H   LINE      CODE     ---       #992
      00FF45EAH   LINE      CODE     ---       #993
      00FF45EAH   LINE      CODE     ---       #995
      00FF45EAH   LINE      CODE     ---       #996
      ---         BLOCKEND  ---      ---       LVL=0

      00FF4009H   BLOCK     CODE     ---       LVL=0
      00FF4009H   LINE      CODE     ---       #997
      00FF4009H   LINE      CODE     ---       #999
      00FF402BH   LINE      CODE     ---       #1001
      00FF402BH   LINE      CODE     ---       #1003
      00FF405FH   LINE      CODE     ---       #1004
      00FF407DH   LINE      CODE     ---       #1005
L251 LINKER/LOCATER V4.66.93.0                                                        07/17/2022  02:20:12  PAGE 75


      00FF4090H   LINE      CODE     ---       #1007
      00FF4095H   LINE      CODE     ---       #1008
      00FF409BH   LINE      CODE     ---       #1009
      00FF40A3H   LINE      CODE     ---       #1010
      00FF40ABH   LINE      CODE     ---       #1011
      00FF40AFH   LINE      CODE     ---       #1012
      00FF40BBH   LINE      CODE     ---       #1014
      00FF40C1H   LINE      CODE     ---       #1015
      00FF40C5H   LINE      CODE     ---       #1016
      00FF40C5H   LINE      CODE     ---       #1018
      00FF40C6H   LINE      CODE     ---       #1020
      00FF40C6H   LINE      CODE     ---       #1024
      00FF40CDH   LINE      CODE     ---       #1026
      00FF40D7H   LINE      CODE     ---       #1029
      00FF40DDH   LINE      CODE     ---       #1030
      00FF40E1H   LINE      CODE     ---       #1031
      00FF40E7H   LINE      CODE     ---       #1032
      00FF40ECH   LINE      CODE     ---       #1033
      00FF40ECH   LINE      CODE     ---       #1035
      00FF40EFH   LINE      CODE     ---       #1036
      00FF40FCH   LINE      CODE     ---       #1038
      00FF4104H   LINE      CODE     ---       #1039
      00FF410CH   LINE      CODE     ---       #1040
      00FF410CH   LINE      CODE     ---       #1041
      00FF410DH   LINE      CODE     ---       #1043
      00FF410DH   LINE      CODE     ---       #1046
      00FF4141H   LINE      CODE     ---       #1047
      00FF415FH   LINE      CODE     ---       #1048
      00FF4169H   LINE      CODE     ---       #1049
      00FF4171H   LINE      CODE     ---       #1050
      00FF4179H   LINE      CODE     ---       #1051
      00FF417DH   LINE      CODE     ---       #1052
      00FF417DH   LINE      CODE     ---       #1053
      00FF417DH   LINE      CODE     ---       #1054
      00FF417FH   LINE      CODE     ---       #1056
      00FF417FH   LINE      CODE     ---       #1058
      00FF4182H   LINE      CODE     ---       #1059
      00FF418AH   LINE      CODE     ---       #1060
      00FF418AH   LINE      CODE     ---       #1062
      00FF418AH   LINE      CODE     ---       #1063
      ---         BLOCKEND  ---      ---       LVL=0

      00FF3A18H   BLOCK     CODE     ---       LVL=0
      00000255H   SYMBOL    EDATA    INT       out_state
      00FF3A18H   LINE      CODE     ---       #1065
      00FF3A18H   LINE      CODE     ---       #1066
      00FF3A18H   LINE      CODE     ---       #1068
      00FF3A37H   LINE      CODE     ---       #1070
      00FF3A37H   LINE      CODE     ---       #1073
      00FF3A49H   LINE      CODE     ---       #1075
      00FF3A64H   LINE      CODE     ---       #1077
      00FF3A78H   LINE      CODE     ---       #1079
      00FF3A78H   LINE      CODE     ---       #1080
      00FF3A7BH   LINE      CODE     ---       #1081
      00FF3A95H   LINE      CODE     ---       #1083
      00FF3A95H   LINE      CODE     ---       #1084
      00FF3A95H   LINE      CODE     ---       #1085
      00FF3A98H   LINE      CODE     ---       #1087
      00FF3A98H   LINE      CODE     ---       #1089
      00FF3AA8H   LINE      CODE     ---       #1092
      00FF3AC0H   LINE      CODE     ---       #1094
      00FF3AC8H   LINE      CODE     ---       #1095
      00FF3ACEH   LINE      CODE     ---       #1096
      00FF3AD4H   LINE      CODE     ---       #1097
      00FF3AD4H   LINE      CODE     ---       #1098
L251 LINKER/LOCATER V4.66.93.0                                                        07/17/2022  02:20:12  PAGE 76


      00FF3AD4H   LINE      CODE     ---       #1099
      00FF3AD4H   LINE      CODE     ---       #1100
      00FF3AD6H   LINE      CODE     ---       #1104
      00FF3ADFH   LINE      CODE     ---       #1105
      00FF3AFDH   LINE      CODE     ---       #1110
      00FF3AFDH   LINE      CODE     ---       #1112
      00FF3B25H   LINE      CODE     ---       #1114
      00FF3B2DH   LINE      CODE     ---       #1115
      00FF3B35H   LINE      CODE     ---       #1116
      00FF3B35H   LINE      CODE     ---       #1117
      00FF3B69H   LINE      CODE     ---       #1119
      00FF3B71H   LINE      CODE     ---       #1120
      00FF3B75H   LINE      CODE     ---       #1121
      00FF3B75H   LINE      CODE     ---       #1124
      00FF3B77H   LINE      CODE     ---       #1126
      00FF3B77H   LINE      CODE     ---       #1129
      00FF3B81H   LINE      CODE     ---       #1131
      00FF3B89H   LINE      CODE     ---       #1132
      00FF3BB0H   LINE      CODE     ---       #1133
      00FF3BB8H   LINE      CODE     ---       #1134
      00FF3BB9H   LINE      CODE     ---       #1135
      00FF3BC2H   LINE      CODE     ---       #1137
      00FF3BCAH   LINE      CODE     ---       #1138
      00FF3BEBH   LINE      CODE     ---       #1139
      00FF3BF3H   LINE      CODE     ---       #1140
      00FF3BF3H   LINE      CODE     ---       #1147
      00FF3BF4H   LINE      CODE     ---       #1150
      00FF3BF4H   LINE      CODE     ---       #1152
      00FF3BFEH   LINE      CODE     ---       #1154
      00FF3C03H   LINE      CODE     ---       #1155
      00FF3C09H   LINE      CODE     ---       #1156
      00FF3C11H   LINE      CODE     ---       #1157
      00FF3C1DH   LINE      CODE     ---       #1158
      00FF3C27H   LINE      CODE     ---       #1160
      00FF3C2DH   LINE      CODE     ---       #1164
      00FF3C2DH   LINE      CODE     ---       #1166
      00FF3C3FH   LINE      CODE     ---       #1167
      00FF3C5AH   LINE      CODE     ---       #1169
      00FF3C5AH   LINE      CODE     ---       #1171
      00FF3C5AH   LINE      CODE     ---       #1172
      ---         BLOCKEND  ---      ---       LVL=0

      00FF4A6CH   BLOCK     CODE     ---       LVL=0
      00FF4A6CH   LINE      CODE     ---       #1173
      00FF4A6CH   LINE      CODE     ---       #1175
      00FF4A7FH   LINE      CODE     ---       #1177
      00FF4A7FH   LINE      CODE     ---       #1179
      00FF4A8BH   LINE      CODE     ---       #1180
      00FF4A8FH   LINE      CODE     ---       #1181
      00FF4A92H   LINE      CODE     ---       #1182
      00FF4AA2H   LINE      CODE     ---       #1184
      00FF4AAAH   LINE      CODE     ---       #1187
      00FF4AAAH   LINE      CODE     ---       #1188
      00FF4AB0H   LINE      CODE     ---       #1190
      00FF4AB0H   LINE      CODE     ---       #1191
      00FF4AB0H   LINE      CODE     ---       #1192
      00FF4AB0H   LINE      CODE     ---       #1193
      00FF4AB0H   LINE      CODE     ---       #1194
      00FF4AB2H   LINE      CODE     ---       #1196
      00FF4AB2H   LINE      CODE     ---       #1199
      00FF4AB5H   LINE      CODE     ---       #1200
      00FF4ABFH   LINE      CODE     ---       #1202
      00FF4AC7H   LINE      CODE     ---       #1203
      00FF4ACFH   LINE      CODE     ---       #1204
      00FF4AD3H   LINE      CODE     ---       #1205
L251 LINKER/LOCATER V4.66.93.0                                                        07/17/2022  02:20:12  PAGE 77


      00FF4AD3H   LINE      CODE     ---       #1206
      00FF4AD9H   LINE      CODE     ---       #1208
      00FF4AE1H   LINE      CODE     ---       #1209
      00FF4AE9H   LINE      CODE     ---       #1210
      00FF4AEDH   LINE      CODE     ---       #1211
      00FF4AEDH   LINE      CODE     ---       #1212
      00FF4AEEH   LINE      CODE     ---       #1214
      00FF4AEEH   LINE      CODE     ---       #1216
      00FF4AF1H   LINE      CODE     ---       #1217
      00FF4B03H   LINE      CODE     ---       #1218
      00FF4B03H   LINE      CODE     ---       #1220
      00FF4B03H   LINE      CODE     ---       #1221
      ---         BLOCKEND  ---      ---       LVL=0

      00FF54E3H   BLOCK     CODE     ---       LVL=0
      00FF54E3H   LINE      CODE     ---       #1224
      00FF54E3H   LINE      CODE     ---       #1226
      00FF54E9H   LINE      CODE     ---       #1227
      00FF54EFH   LINE      CODE     ---       #1228
      00FF54F5H   LINE      CODE     ---       #1229
      00FF54FBH   LINE      CODE     ---       #1230
      00FF5501H   LINE      CODE     ---       #1231
      00FF5502H   LINE      CODE     ---       #1232
      ---         BLOCKEND  ---      ---       LVL=0

      00FF25B8H   BLOCK     CODE     ---       LVL=0
      00000257H   SYMBOL    EDATA    WORD      ch
      00FF25B8H   LINE      CODE     ---       #1235
      00FF25B8H   LINE      CODE     ---       #1236
      00FF25B8H   LINE      CODE     ---       #1239
      00FF25CFH   LINE      CODE     ---       #1240
      00FF25DAH   LINE      CODE     ---       #1241
      00FF25F3H   LINE      CODE     ---       #1242
      00FF2600H   LINE      CODE     ---       #1243
      00FF2617H   LINE      CODE     ---       #1244
      00FF2624H   LINE      CODE     ---       #1245
      00FF263DH   LINE      CODE     ---       #1246
      00FF264AH   LINE      CODE     ---       #1247
      00FF266BH   LINE      CODE     ---       #1248
      00FF2678H   LINE      CODE     ---       #1249
      00FF2691H   LINE      CODE     ---       #1250
      00FF269EH   LINE      CODE     ---       #1251
      00FF26B5H   LINE      CODE     ---       #1252
      00FF26C2H   LINE      CODE     ---       #1253
      00FF26D9H   LINE      CODE     ---       #1254
      00FF26E6H   LINE      CODE     ---       #1255
      00FF26FBH   LINE      CODE     ---       #1256
      00FF271EH   LINE      CODE     ---       #1258
      00FF271EH   LINE      CODE     ---       #1260
      00FF2727H   LINE      CODE     ---       #1262
      00FF272FH   LINE      CODE     ---       #1263
      00FF2738H   LINE      CODE     ---       #1264
      00FF2741H   LINE      CODE     ---       #1265
      00FF274AH   LINE      CODE     ---       #1266
      00FF2753H   LINE      CODE     ---       #1267
      00FF275CH   LINE      CODE     ---       #1268
      00FF2775H   LINE      CODE     ---       #1269
      00FF277EH   LINE      CODE     ---       #1270
      00FF2783H   LINE      CODE     ---       #1271
      00FF2783H   LINE      CODE     ---       #1273
      00FF2783H   LINE      CODE     ---       #1275
      00FF278DH   LINE      CODE     ---       #1276
      00FF279CH   LINE      CODE     ---       #1277
      00FF279DH   LINE      CODE     ---       #1279
      00FF279DH   LINE      CODE     ---       #1282
L251 LINKER/LOCATER V4.66.93.0                                                        07/17/2022  02:20:12  PAGE 78


      00FF27CAH   LINE      CODE     ---       #1284
      00FF27CAH   LINE      CODE     ---       #1286
      00FF27D2H   LINE      CODE     ---       #1287
      00FF27D5H   LINE      CODE     ---       #1289
      00FF27D5H   LINE      CODE     ---       #1291
      00FF27DEH   LINE      CODE     ---       #1292
      00FF27ECH   LINE      CODE     ---       #1293
      00FF27EFH   LINE      CODE     ---       #1295
      00FF27EFH   LINE      CODE     ---       #1297
      00FF27F7H   LINE      CODE     ---       #1298
      00FF27FAH   LINE      CODE     ---       #1300
      00FF27FAH   LINE      CODE     ---       #1302
      00FF2803H   LINE      CODE     ---       #1303
      00FF2811H   LINE      CODE     ---       #1304
      00FF2814H   LINE      CODE     ---       #1306
      00FF2814H   LINE      CODE     ---       #1308
      00FF281DH   LINE      CODE     ---       #1309
      00FF282BH   LINE      CODE     ---       #1310
      00FF282EH   LINE      CODE     ---       #1312
      00FF282EH   LINE      CODE     ---       #1314
      00FF2837H   LINE      CODE     ---       #1315
      00FF2845H   LINE      CODE     ---       #1316
      00FF2848H   LINE      CODE     ---       #1318
      00FF2848H   LINE      CODE     ---       #1320
      00FF2857H   LINE      CODE     ---       #1321
      00FF285AH   LINE      CODE     ---       #1323
      00FF285AH   LINE      CODE     ---       #1325
      00FF2862H   LINE      CODE     ---       #1326
      00FF2862H   LINE      CODE     ---       #1328
      00FF2862H   LINE      CODE     ---       #1329
      00FF2865H   LINE      CODE     ---       #1331
      00FF2865H   LINE      CODE     ---       #1334
      00FF2892H   LINE      CODE     ---       #1336
      00FF2892H   LINE      CODE     ---       #1338
      00FF289EH   LINE      CODE     ---       #1339
      00FF289FH   LINE      CODE     ---       #1341
      00FF289FH   LINE      CODE     ---       #1343
      00FF28A8H   LINE      CODE     ---       #1344
      00FF28B9H   LINE      CODE     ---       #1345
      00FF28BAH   LINE      CODE     ---       #1347
      00FF28BAH   LINE      CODE     ---       #1349
      00FF28C6H   LINE      CODE     ---       #1350
      00FF28C7H   LINE      CODE     ---       #1352
      00FF28C7H   LINE      CODE     ---       #1354
      00FF28D0H   LINE      CODE     ---       #1355
      00FF28DEH   LINE      CODE     ---       #1356
      00FF28DFH   LINE      CODE     ---       #1358
      00FF28DFH   LINE      CODE     ---       #1360
      00FF28E8H   LINE      CODE     ---       #1361
      00FF28F6H   LINE      CODE     ---       #1362
      00FF28F7H   LINE      CODE     ---       #1364
      00FF28F7H   LINE      CODE     ---       #1366
      00FF2900H   LINE      CODE     ---       #1367
      00FF290EH   LINE      CODE     ---       #1368
      00FF290FH   LINE      CODE     ---       #1370
      00FF290FH   LINE      CODE     ---       #1372
      00FF2922H   LINE      CODE     ---       #1373
      00FF2923H   LINE      CODE     ---       #1375
      00FF2923H   LINE      CODE     ---       #1377
      00FF292FH   LINE      CODE     ---       #1378
      00FF292FH   LINE      CODE     ---       #1380
      00FF292FH   LINE      CODE     ---       #1381
      00FF2930H   LINE      CODE     ---       #1384
      00FF2930H   LINE      CODE     ---       #1386
      00FF293EH   LINE      CODE     ---       #1387
L251 LINKER/LOCATER V4.66.93.0                                                        07/17/2022  02:20:12  PAGE 79


      00FF294CH   LINE      CODE     ---       #1388
      00FF294CH   LINE      CODE     ---       #1391
      00FF294CH   LINE      CODE     ---       #1392
      ---         BLOCKEND  ---      ---       LVL=0

      00FF1A28H   BLOCK     CODE     ---       LVL=0
      00FF1A2AH   BLOCK     CODE     NEAR LAB  LVL=1
      00000259H   SYMBOL    EDATA    WORD      ch
      WR14        REGSYM    ---      INT       flag
      WR12        REGSYM    ---      INT       i
      ---         BLOCKEND  ---      ---       LVL=1
      00FF1A28H   LINE      CODE     ---       #1393
      00FF1A2AH   LINE      CODE     ---       #1394
      00FF1A2AH   LINE      CODE     ---       #1397
      00FF1A2CH   LINE      CODE     ---       #1398
      00FF1A2CH   LINE      CODE     ---       #1400
      00FF1A43H   LINE      CODE     ---       #1401
      00FF1A4EH   LINE      CODE     ---       #1402
      00FF1A65H   LINE      CODE     ---       #1403
      00FF1A72H   LINE      CODE     ---       #1404
      00FF1A89H   LINE      CODE     ---       #1405
      00FF1A96H   LINE      CODE     ---       #1406
      00FF1AADH   LINE      CODE     ---       #1407
      00FF1ABAH   LINE      CODE     ---       #1408
      00FF1AD1H   LINE      CODE     ---       #1409
      00FF1ADEH   LINE      CODE     ---       #1410
      00FF1AF5H   LINE      CODE     ---       #1411
      00FF1B02H   LINE      CODE     ---       #1412
      00FF1B21H   LINE      CODE     ---       #1413
      00FF1B2EH   LINE      CODE     ---       #1414
      00FF1B45H   LINE      CODE     ---       #1415
      00FF1B52H   LINE      CODE     ---       #1416
      00FF1B67H   LINE      CODE     ---       #1417
      00FF1B8AH   LINE      CODE     ---       #1419
      00FF1B8AH   LINE      CODE     ---       #1421
      00FF1B93H   LINE      CODE     ---       #1422
      00FF1B95H   LINE      CODE     ---       #1424
      00FF1BA8H   LINE      CODE     ---       #1426
      00FF1BB7H   LINE      CODE     ---       #1427
      00FF1BC6H   LINE      CODE     ---       #1428
      00FF1BD5H   LINE      CODE     ---       #1429
      00FF1BE4H   LINE      CODE     ---       #1430
      00FF1BF3H   LINE      CODE     ---       #1431
      00FF1C02H   LINE      CODE     ---       #1432
      00FF1C21H   LINE      CODE     ---       #1433
      00FF1C30H   LINE      CODE     ---       #1434
      00FF1C34H   LINE      CODE     ---       #1435
      00FF1C36H   LINE      CODE     ---       #1436
      00FF1C41H   LINE      CODE     ---       #1440
      00FF1C45H   LINE      CODE     ---       #1442
      00FF1C4EH   LINE      CODE     ---       #1443
      00FF1C57H   LINE      CODE     ---       #1444
      00FF1C60H   LINE      CODE     ---       #1445
      00FF1C69H   LINE      CODE     ---       #1446
      00FF1C72H   LINE      CODE     ---       #1447
      00FF1C7BH   LINE      CODE     ---       #1448
      00FF1C94H   LINE      CODE     ---       #1449
      00FF1C9DH   LINE      CODE     ---       #1450
      00FF1C9DH   LINE      CODE     ---       #1452
      00FF1CA2H   LINE      CODE     ---       #1453
      00FF1CA5H   LINE      CODE     ---       #1455
      00FF1CA5H   LINE      CODE     ---       #1457
      00FF1CAFH   LINE      CODE     ---       #1458
      00FF1CBEH   LINE      CODE     ---       #1459
      00FF1CC1H   LINE      CODE     ---       #1461
L251 LINKER/LOCATER V4.66.93.0                                                        07/17/2022  02:20:12  PAGE 80


      00FF1CC1H   LINE      CODE     ---       #1464
      00FF1CEEH   LINE      CODE     ---       #1466
      00FF1CEEH   LINE      CODE     ---       #1468
      00FF1CF6H   LINE      CODE     ---       #1469
      00FF1CF9H   LINE      CODE     ---       #1471
      00FF1CF9H   LINE      CODE     ---       #1473
      00FF1D01H   LINE      CODE     ---       #1474
      00FF1D04H   LINE      CODE     ---       #1476
      00FF1D04H   LINE      CODE     ---       #1478
      00FF1D0CH   LINE      CODE     ---       #1479
      00FF1D0FH   LINE      CODE     ---       #1481
      00FF1D0FH   LINE      CODE     ---       #1483
      00FF1D17H   LINE      CODE     ---       #1484
      00FF1D1AH   LINE      CODE     ---       #1486
      00FF1D1AH   LINE      CODE     ---       #1488
      00FF1D22H   LINE      CODE     ---       #1489
      00FF1D25H   LINE      CODE     ---       #1491
      00FF1D25H   LINE      CODE     ---       #1493
      00FF1D2DH   LINE      CODE     ---       #1494
      00FF1D30H   LINE      CODE     ---       #1496
      00FF1D30H   LINE      CODE     ---       #1498
      00FF1D38H   LINE      CODE     ---       #1499
      00FF1D3BH   LINE      CODE     ---       #1501
      00FF1D3BH   LINE      CODE     ---       #1503
      00FF1D54H   LINE      CODE     ---       #1504
      00FF1D54H   LINE      CODE     ---       #1506
      00FF1D54H   LINE      CODE     ---       #1507
      00FF1D57H   LINE      CODE     ---       #1509
      00FF1D57H   LINE      CODE     ---       #1512
      00FF1D84H   LINE      CODE     ---       #1514
      00FF1D84H   LINE      CODE     ---       #1516
      00FF1D90H   LINE      CODE     ---       #1517
      00FF1D93H   LINE      CODE     ---       #1519
      00FF1D93H   LINE      CODE     ---       #1521
      00FF1D9FH   LINE      CODE     ---       #1522
      00FF1DA2H   LINE      CODE     ---       #1524
      00FF1DA2H   LINE      CODE     ---       #1526
      00FF1DAEH   LINE      CODE     ---       #1527
      00FF1DB0H   LINE      CODE     ---       #1529
      00FF1DB0H   LINE      CODE     ---       #1531
      00FF1DBCH   LINE      CODE     ---       #1532
      00FF1DBEH   LINE      CODE     ---       #1534
      00FF1DBEH   LINE      CODE     ---       #1536
      00FF1DCAH   LINE      CODE     ---       #1537
      00FF1DCCH   LINE      CODE     ---       #1539
      00FF1DCCH   LINE      CODE     ---       #1541
      00FF1DD8H   LINE      CODE     ---       #1542
      00FF1DDAH   LINE      CODE     ---       #1544
      00FF1DDAH   LINE      CODE     ---       #1546
      00FF1DE6H   LINE      CODE     ---       #1547
      00FF1DE8H   LINE      CODE     ---       #1549
      00FF1DE8H   LINE      CODE     ---       #1551
      00FF1E07H   LINE      CODE     ---       #1552
      00FF1E07H   LINE      CODE     ---       #1554
      00FF1E07H   LINE      CODE     ---       #1555
      00FF1E09H   LINE      CODE     ---       #1557
      00FF1E09H   LINE      CODE     ---       #1559
      00FF1E17H   LINE      CODE     ---       #1560
      00FF1E25H   LINE      CODE     ---       #1561
      00FF1E25H   LINE      CODE     ---       #1564
      00FF1E25H   LINE      CODE     ---       #1565
      ---         BLOCKEND  ---      ---       LVL=0

      00FF221FH   BLOCK     CODE     ---       LVL=0
      0000025BH   SYMBOL    EDATA    WORD      ch
L251 LINKER/LOCATER V4.66.93.0                                                        07/17/2022  02:20:12  PAGE 81


      00FF221FH   LINE      CODE     ---       #1566
      00FF221FH   LINE      CODE     ---       #1567
      00FF221FH   LINE      CODE     ---       #1569
      00FF2236H   LINE      CODE     ---       #1570
      00FF2241H   LINE      CODE     ---       #1571
      00FF2258H   LINE      CODE     ---       #1572
      00FF2265H   LINE      CODE     ---       #1573
      00FF227CH   LINE      CODE     ---       #1574
      00FF2289H   LINE      CODE     ---       #1575
      00FF22A0H   LINE      CODE     ---       #1576
      00FF22ADH   LINE      CODE     ---       #1577
      00FF22C4H   LINE      CODE     ---       #1578
      00FF22D1H   LINE      CODE     ---       #1579
      00FF22E8H   LINE      CODE     ---       #1580
      00FF22F5H   LINE      CODE     ---       #1581
      00FF230CH   LINE      CODE     ---       #1582
      00FF2319H   LINE      CODE     ---       #1583
      00FF2330H   LINE      CODE     ---       #1584
      00FF233DH   LINE      CODE     ---       #1585
      00FF2352H   LINE      CODE     ---       #1587
      00FF2375H   LINE      CODE     ---       #1589
      00FF2375H   LINE      CODE     ---       #1591
      00FF237EH   LINE      CODE     ---       #1593
      00FF2397H   LINE      CODE     ---       #1594
      00FF23B0H   LINE      CODE     ---       #1595
      00FF23B9H   LINE      CODE     ---       #1596
      00FF23C2H   LINE      CODE     ---       #1597
      00FF23CBH   LINE      CODE     ---       #1598
      00FF23D4H   LINE      CODE     ---       #1599
      00FF23DDH   LINE      CODE     ---       #1600
      00FF23F6H   LINE      CODE     ---       #1601
      00FF23FBH   LINE      CODE     ---       #1602
      00FF23FBH   LINE      CODE     ---       #1604
      00FF23FBH   LINE      CODE     ---       #1606
      00FF2405H   LINE      CODE     ---       #1607
      00FF2414H   LINE      CODE     ---       #1608
      00FF2415H   LINE      CODE     ---       #1610
      00FF2415H   LINE      CODE     ---       #1613
      00FF2442H   LINE      CODE     ---       #1615
      00FF2442H   LINE      CODE     ---       #1617
      00FF245BH   LINE      CODE     ---       #1618
      00FF245EH   LINE      CODE     ---       #1620
      00FF245EH   LINE      CODE     ---       #1622
      00FF2477H   LINE      CODE     ---       #1623
      00FF247AH   LINE      CODE     ---       #1625
      00FF247AH   LINE      CODE     ---       #1627
      00FF2482H   LINE      CODE     ---       #1628
      00FF2485H   LINE      CODE     ---       #1630
      00FF2485H   LINE      CODE     ---       #1632
      00FF248DH   LINE      CODE     ---       #1633
      00FF2490H   LINE      CODE     ---       #1635
      00FF2490H   LINE      CODE     ---       #1637
      00FF2498H   LINE      CODE     ---       #1638
      00FF249BH   LINE      CODE     ---       #1640
      00FF249BH   LINE      CODE     ---       #1642
      00FF24A3H   LINE      CODE     ---       #1643
      00FF24A6H   LINE      CODE     ---       #1645
      00FF24A6H   LINE      CODE     ---       #1647
      00FF24AEH   LINE      CODE     ---       #1648
      00FF24B1H   LINE      CODE     ---       #1650
      00FF24B1H   LINE      CODE     ---       #1652
      00FF24CAH   LINE      CODE     ---       #1653
      00FF24CAH   LINE      CODE     ---       #1655
      00FF24CAH   LINE      CODE     ---       #1656
      00FF24CDH   LINE      CODE     ---       #1658
L251 LINKER/LOCATER V4.66.93.0                                                        07/17/2022  02:20:12  PAGE 82


      00FF24CDH   LINE      CODE     ---       #1661
      00FF24FAH   LINE      CODE     ---       #1663
      00FF24FAH   LINE      CODE     ---       #1665
      00FF2519H   LINE      CODE     ---       #1666
      00FF251AH   LINE      CODE     ---       #1668
      00FF251AH   LINE      CODE     ---       #1670
      00FF2539H   LINE      CODE     ---       #1671
      00FF253AH   LINE      CODE     ---       #1673
      00FF253AH   LINE      CODE     ---       #1675
      00FF2546H   LINE      CODE     ---       #1676
      00FF2547H   LINE      CODE     ---       #1678
      00FF2547H   LINE      CODE     ---       #1680
      00FF2553H   LINE      CODE     ---       #1681
      00FF2554H   LINE      CODE     ---       #1683
      00FF2554H   LINE      CODE     ---       #1685
      00FF2560H   LINE      CODE     ---       #1686
      00FF2561H   LINE      CODE     ---       #1688
      00FF2561H   LINE      CODE     ---       #1690
      00FF256DH   LINE      CODE     ---       #1691
      00FF256EH   LINE      CODE     ---       #1693
      00FF256EH   LINE      CODE     ---       #1695
      00FF257AH   LINE      CODE     ---       #1696
      00FF257BH   LINE      CODE     ---       #1698
      00FF257BH   LINE      CODE     ---       #1700
      00FF259AH   LINE      CODE     ---       #1701
      00FF259AH   LINE      CODE     ---       #1703
      00FF259AH   LINE      CODE     ---       #1704
      00FF259BH   LINE      CODE     ---       #1706
      00FF259BH   LINE      CODE     ---       #1708
      00FF25A9H   LINE      CODE     ---       #1709
      00FF25B7H   LINE      CODE     ---       #1710
      00FF25B7H   LINE      CODE     ---       #1713
      00FF25B7H   LINE      CODE     ---       #1714
      ---         BLOCKEND  ---      ---       LVL=0

      00FF2CBFH   BLOCK     CODE     ---       LVL=0
      0000025DH   SYMBOL    EDATA    WORD      ch
      00FF2CBFH   LINE      CODE     ---       #1715
      00FF2CBFH   LINE      CODE     ---       #1716
      00FF2CBFH   LINE      CODE     ---       #1718
      00FF2CD6H   LINE      CODE     ---       #1719
      00FF2CE1H   LINE      CODE     ---       #1720
      00FF2CF8H   LINE      CODE     ---       #1721
      00FF2D05H   LINE      CODE     ---       #1722
      00FF2D1CH   LINE      CODE     ---       #1723
      00FF2D29H   LINE      CODE     ---       #1724
      00FF2D40H   LINE      CODE     ---       #1725
      00FF2D4DH   LINE      CODE     ---       #1726
      00FF2D64H   LINE      CODE     ---       #1727
      00FF2D71H   LINE      CODE     ---       #1728
      00FF2D88H   LINE      CODE     ---       #1729
      00FF2D95H   LINE      CODE     ---       #1730
      00FF2DACH   LINE      CODE     ---       #1731
      00FF2DB9H   LINE      CODE     ---       #1732
      00FF2DD8H   LINE      CODE     ---       #1733
      00FF2DE5H   LINE      CODE     ---       #1734
      00FF2DFAH   LINE      CODE     ---       #1735
      00FF2E1AH   LINE      CODE     ---       #1737
      00FF2E1AH   LINE      CODE     ---       #1739
      00FF2E23H   LINE      CODE     ---       #1741
      00FF2E2CH   LINE      CODE     ---       #1742
      00FF2E35H   LINE      CODE     ---       #1743
      00FF2E3EH   LINE      CODE     ---       #1744
      00FF2E47H   LINE      CODE     ---       #1745
      00FF2E50H   LINE      CODE     ---       #1746
L251 LINKER/LOCATER V4.66.93.0                                                        07/17/2022  02:20:12  PAGE 83


      00FF2E59H   LINE      CODE     ---       #1747
      00FF2E62H   LINE      CODE     ---       #1748
      00FF2E6BH   LINE      CODE     ---       #1749
      00FF2E70H   LINE      CODE     ---       #1750
      00FF2E70H   LINE      CODE     ---       #1752
      00FF2E70H   LINE      CODE     ---       #1754
      00FF2E7AH   LINE      CODE     ---       #1755
      00FF2E89H   LINE      CODE     ---       #1756
      00FF2E8AH   LINE      CODE     ---       #1758
      00FF2E8AH   LINE      CODE     ---       #1761
      00FF2EB7H   LINE      CODE     ---       #1763
      00FF2EB7H   LINE      CODE     ---       #1765
      00FF2EBFH   LINE      CODE     ---       #1766
      00FF2EC2H   LINE      CODE     ---       #1768
      00FF2EC2H   LINE      CODE     ---       #1770
      00FF2ECAH   LINE      CODE     ---       #1771
      00FF2ECDH   LINE      CODE     ---       #1773
      00FF2ECDH   LINE      CODE     ---       #1775
      00FF2ED5H   LINE      CODE     ---       #1776
      00FF2ED8H   LINE      CODE     ---       #1778
      00FF2ED8H   LINE      CODE     ---       #1780
      00FF2EE0H   LINE      CODE     ---       #1781
      00FF2EE3H   LINE      CODE     ---       #1783
      00FF2EE3H   LINE      CODE     ---       #1785
      00FF2EEBH   LINE      CODE     ---       #1786
      00FF2EEEH   LINE      CODE     ---       #1788
      00FF2EEEH   LINE      CODE     ---       #1790
      00FF2EF6H   LINE      CODE     ---       #1791
      00FF2EF9H   LINE      CODE     ---       #1793
      00FF2EF9H   LINE      CODE     ---       #1795
      00FF2F01H   LINE      CODE     ---       #1796
      00FF2F04H   LINE      CODE     ---       #1798
      00FF2F04H   LINE      CODE     ---       #1800
      00FF2F0CH   LINE      CODE     ---       #1802
      00FF2F0CH   LINE      CODE     ---       #1804
      00FF2F0FH   LINE      CODE     ---       #1806
      00FF2F0FH   LINE      CODE     ---       #1809
      00FF2F3CH   LINE      CODE     ---       #1811
      00FF2F3CH   LINE      CODE     ---       #1813
      00FF2F48H   LINE      CODE     ---       #1814
      00FF2F49H   LINE      CODE     ---       #1816
      00FF2F49H   LINE      CODE     ---       #1818
      00FF2F55H   LINE      CODE     ---       #1819
      00FF2F56H   LINE      CODE     ---       #1821
      00FF2F56H   LINE      CODE     ---       #1823
      00FF2F62H   LINE      CODE     ---       #1824
      00FF2F63H   LINE      CODE     ---       #1826
      00FF2F63H   LINE      CODE     ---       #1828
      00FF2F6FH   LINE      CODE     ---       #1829
      00FF2F70H   LINE      CODE     ---       #1831
      00FF2F70H   LINE      CODE     ---       #1833
      00FF2F7CH   LINE      CODE     ---       #1834
      00FF2F7DH   LINE      CODE     ---       #1836
      00FF2F7DH   LINE      CODE     ---       #1838
      00FF2F89H   LINE      CODE     ---       #1839
      00FF2F8AH   LINE      CODE     ---       #1841
      00FF2F8AH   LINE      CODE     ---       #1843
      00FF2F96H   LINE      CODE     ---       #1844
      00FF2F97H   LINE      CODE     ---       #1846
      00FF2F97H   LINE      CODE     ---       #1848
      00FF2FA3H   LINE      CODE     ---       #1850
      00FF2FA3H   LINE      CODE     ---       #1851
      00FF2FA4H   LINE      CODE     ---       #1853
      00FF2FA4H   LINE      CODE     ---       #1855
      00FF2FB2H   LINE      CODE     ---       #1856
L251 LINKER/LOCATER V4.66.93.0                                                        07/17/2022  02:20:12  PAGE 84


      00FF2FC0H   LINE      CODE     ---       #1857
      00FF2FC0H   LINE      CODE     ---       #1860
      00FF2FC0H   LINE      CODE     ---       #1861
      ---         BLOCKEND  ---      ---       LVL=0

      00FF4F14H   BLOCK     CODE     ---       LVL=0
      00FF4F14H   LINE      CODE     ---       #1862
      00FF4F14H   LINE      CODE     ---       #1865
      00FF4F28H   LINE      CODE     ---       #1867
      00FF4F28H   LINE      CODE     ---       #1869
      00FF4F2BH   LINE      CODE     ---       #1870
      00FF4F2BH   LINE      CODE     ---       #1872
      00FF4F2BH   LINE      CODE     ---       #1874
      00FF4F2EH   LINE      CODE     ---       #1875
      00FF4F2EH   LINE      CODE     ---       #1877
      00FF4F2EH   LINE      CODE     ---       #1879
      00FF4F31H   LINE      CODE     ---       #1880
      00FF4F31H   LINE      CODE     ---       #1882
      00FF4F31H   LINE      CODE     ---       #1884
      00FF4F34H   LINE      CODE     ---       #1885
      00FF4F34H   LINE      CODE     ---       #1887
      00FF4F34H   LINE      CODE     ---       #1890
      00FF4F39H   LINE      CODE     ---       #1891
      00FF4F40H   LINE      CODE     ---       #1892
      00FF4F48H   LINE      CODE     ---       #1893
      00FF4F50H   LINE      CODE     ---       #1894
      00FF4F54H   LINE      CODE     ---       #1895
      00FF4F5EH   LINE      CODE     ---       #1896
      00FF4F61H   LINE      CODE     ---       #1897
      00FF4F61H   LINE      CODE     ---       #1899
      00FF4F61H   LINE      CODE     ---       #1900
      ---         BLOCKEND  ---      ---       LVL=0

      00FF37D4H   BLOCK     CODE     ---       LVL=0
      000005ABH   SYMBOL    EDATA    ---       txt
      00FF37D4H   LINE      CODE     ---       #1901
      00FF37D4H   LINE      CODE     ---       #1902
      00FF37D4H   LINE      CODE     ---       #1904
      00FF37DFH   LINE      CODE     ---       #1907
      00FF380EH   LINE      CODE     ---       #1909
      00FF3819H   LINE      CODE     ---       #1911
      00FF3837H   LINE      CODE     ---       #1913
      00FF3837H   LINE      CODE     ---       #1915
      00FF3843H   LINE      CODE     ---       #1916
      00FF3845H   LINE      CODE     ---       #1918
      00FF3845H   LINE      CODE     ---       #1920
      00FF3851H   LINE      CODE     ---       #1921
      00FF3853H   LINE      CODE     ---       #1923
      00FF3853H   LINE      CODE     ---       #1925
      00FF385FH   LINE      CODE     ---       #1926
      00FF3861H   LINE      CODE     ---       #1928
      00FF3861H   LINE      CODE     ---       #1930
      00FF386DH   LINE      CODE     ---       #1931
      00FF386FH   LINE      CODE     ---       #1933
      00FF386FH   LINE      CODE     ---       #1935
      00FF387BH   LINE      CODE     ---       #1936
      00FF387DH   LINE      CODE     ---       #1938
      00FF387DH   LINE      CODE     ---       #1940
      00FF388CH   LINE      CODE     ---       #1941
      00FF388CH   LINE      CODE     ---       #1943
      00FF388CH   LINE      CODE     ---       #1945
      00FF3899H   LINE      CODE     ---       #1946
      00FF38B8H   LINE      CODE     ---       #1947
      00FF38C5H   LINE      CODE     ---       #1948
      00FF38ECH   LINE      CODE     ---       #1949
L251 LINKER/LOCATER V4.66.93.0                                                        07/17/2022  02:20:12  PAGE 85


      00FF38F9H   LINE      CODE     ---       #1950
      00FF3930H   LINE      CODE     ---       #1951
      00FF393DH   LINE      CODE     ---       #1952
      00FF396CH   LINE      CODE     ---       #1953
      00FF3979H   LINE      CODE     ---       #1954
      00FF39C0H   LINE      CODE     ---       #1955
      00FF39CDH   LINE      CODE     ---       #1956
      00FF39E4H   LINE      CODE     ---       #1957
      00FF39F1H   LINE      CODE     ---       #1958
      00FF39F7H   LINE      CODE     ---       #1961
      00FF39FCH   LINE      CODE     ---       #1962
      00FF3A03H   LINE      CODE     ---       #1963
      00FF3A0BH   LINE      CODE     ---       #1964
      00FF3A13H   LINE      CODE     ---       #1965
      00FF3A17H   LINE      CODE     ---       #1967
      00FF3A17H   LINE      CODE     ---       #1969
      ---         BLOCKEND  ---      ---       LVL=0

      00FF418BH   BLOCK     CODE     ---       LVL=0
      00FF418BH   LINE      CODE     ---       #2007
      00FF418BH   LINE      CODE     ---       #2009
      00FF4195H   LINE      CODE     ---       #2020
      00FF419DH   LINE      CODE     ---       #2021
      00FF41A5H   LINE      CODE     ---       #2022
      00FF41ABH   LINE      CODE     ---       #2023
      00FF41B1H   LINE      CODE     ---       #2024
      00FF41B5H   LINE      CODE     ---       #2026
      00FF41B6H   LINE      CODE     ---       #2027
      00FF41D2H   LINE      CODE     ---       #2029
      00FF41DAH   LINE      CODE     ---       #2030
      00FF41E2H   LINE      CODE     ---       #2031
      00FF41E8H   LINE      CODE     ---       #2032
      00FF41F2H   LINE      CODE     ---       #2033
      00FF41F8H   LINE      CODE     ---       #2034
      00FF41FEH   LINE      CODE     ---       #2035
      00FF420BH   LINE      CODE     ---       #2037
      00FF4213H   LINE      CODE     ---       #2038
      00FF4217H   LINE      CODE     ---       #2039
      00FF4218H   LINE      CODE     ---       #2042
      00FF4275H   LINE      CODE     ---       #2045
      00FF427AH   LINE      CODE     ---       #2046
      00FF4282H   LINE      CODE     ---       #2048
      00FF428AH   LINE      CODE     ---       #2049
      00FF42A5H   LINE      CODE     ---       #2050
      00FF42A5H   LINE      CODE     ---       #2051
      00FF42A7H   LINE      CODE     ---       #2054
      00FF42AFH   LINE      CODE     ---       #2055
      00FF42CCH   LINE      CODE     ---       #2056
      00FF42E0H   LINE      CODE     ---       #2057
      00FF42E0H   LINE      CODE     ---       #2058
      00FF42E8H   LINE      CODE     ---       #2059
      00FF42EEH   LINE      CODE     ---       #2060
      00FF42F4H   LINE      CODE     ---       #2061
      00FF42FAH   LINE      CODE     ---       #2062
      00FF42FBH   LINE      CODE     ---       #2065
      00FF4303H   LINE      CODE     ---       #2066
      00FF430BH   LINE      CODE     ---       #2067
      00FF430BH   LINE      CODE     ---       #2068
      ---         BLOCKEND  ---      ---       LVL=0

      ---         MODULE    ---      ---       main
      00FF45EBH   PUBLIC    CODE     ---       main
      0000066EH   PUBLIC    EDATA    ---       str
      000000D0H   SFRSYM    DATA     BYTE      PSW
      000000F8H.5 SFRSYM    DATA     BIT       P75
L251 LINKER/LOCATER V4.66.93.0                                                        07/17/2022  02:20:12  PAGE 86


      000000B0H.3 SFRSYM    DATA     BIT       P33
      00000088H   SFRSYM    DATA     BYTE      TCON
      000000B0H.2 SFRSYM    DATA     BIT       P32
      00000098H   SFRSYM    DATA     BYTE      SCON
      000000B8H   SFRSYM    DATA     BYTE      IP
      000000A8H   SFRSYM    DATA     BYTE      IE
      000000F8H   SFRSYM    DATA     BYTE      P7
      000000E8H   SFRSYM    DATA     BYTE      P6
      000000C8H   SFRSYM    DATA     BYTE      P5
      000000C0H   SFRSYM    DATA     BYTE      P4
      000000B0H   SFRSYM    DATA     BYTE      P3
      000000A0H   SFRSYM    DATA     BYTE      P2
      00000090H   SFRSYM    DATA     BYTE      P1
      00000080H   SFRSYM    DATA     BYTE      P0

      00FF45EBH   BLOCK     CODE     ---       LVL=0
      00FF45EBH   LINE      CODE     ---       #8
      00FF45EBH   LINE      CODE     ---       #10
      00FF45EEH   LINE      CODE     ---       #12
      00FF45F1H   LINE      CODE     ---       #14
      00FF45F4H   LINE      CODE     ---       #16
      00FF45FFH   LINE      CODE     ---       #17
      00FF460AH   LINE      CODE     ---       #21
      00FF461DH   LINE      CODE     ---       #23
      00FF462EH   LINE      CODE     ---       #24
      00FF463FH   LINE      CODE     ---       #26
      00FF4648H   LINE      CODE     ---       #27
      00FF4651H   LINE      CODE     ---       #28
      00FF465AH   LINE      CODE     ---       #29
      00FF4663H   LINE      CODE     ---       #30
      00FF466CH   LINE      CODE     ---       #31
      00FF4675H   LINE      CODE     ---       #32
      00FF467EH   LINE      CODE     ---       #33
      00FF4685H   LINE      CODE     ---       #34
      00FF468EH   LINE      CODE     ---       #35
      00FF4697H   LINE      CODE     ---       #36
      00FF46A0H   LINE      CODE     ---       #38
      00FF46A5H   LINE      CODE     ---       #39
      00FF46ACH   LINE      CODE     ---       #41
      00FF46B4H   LINE      CODE     ---       #43
      00FF46BCH   LINE      CODE     ---       #46
      00FF46BEH   LINE      CODE     ---       #51
      00FF46C9H   LINE      CODE     ---       #52
      00FF46D4H   LINE      CODE     ---       #56
      00FF46D7H   LINE      CODE     ---       #58
      00FF46DEH   LINE      CODE     ---       #59
      00FF46DEH   LINE      CODE     ---       #61
      00FF46E1H   LINE      CODE     ---       #66
      00FF46EBH   LINE      CODE     ---       #68
      00FF46EBH   LINE      CODE     ---       #70
      00FF46EEH   LINE      CODE     ---       #71
      00FF46EEH   LINE      CODE     ---       #75
      00FF46F1H   LINE      CODE     ---       #84
      ---         BLOCKEND  ---      ---       LVL=0

      ---         MODULE    ---      ---       Fuzzy_pid
      0000042DH   PUBLIC    EDATA    ---       Duoji_P
      00FF6027H   SYMBOL    HCONST   ---       ?tpl?0001
      00FF6037H   SYMBOL    HCONST   ---       ?tpl?0002
      00FF6047H   SYMBOL    HCONST   ---       ?tpl?0003
      00FF6063H   SYMBOL    HCONST   ---       ?tpl?0004
      00FF60C5H   SYMBOL    HCONST   ---       ?tpl?0005
      00FF60CDH   SYMBOL    HCONST   ---       ?tpl?0006
      00FF60D5H   SYMBOL    HCONST   ---       ?tpl?0007
      00FF60E5H   SYMBOL    HCONST   ---       ?tpl?0008
L251 LINKER/LOCATER V4.66.93.0                                                        07/17/2022  02:20:12  PAGE 87


      00FF60F5H   SYMBOL    HCONST   ---       ?tpl?0009
      REG=7       REGSYM    ---      ---       P
      REG=6       REGSYM    ---      ---       D
      DR4         REGSYM    ---      FLOAT     U
      WR20        REGSYM    ---      INT       Pn
      WR22        REGSYM    ---      INT       Dn
      DR4         REGSYM    ---      LONG      temp1
      DR0         REGSYM    ---      LONG      temp2
      REG=6       REGSYM    ---      ---       Fuzzy_S
      WR30        REGSYM    ---      INT       pe
      WR28        REGSYM    ---      INT       pec
      DR4         REGSYM    ---      FLOAT     U
      WR6         REGSYM    ---      INT       rank
      DR28        REGSYM    ---      FLOAT     temp1
      DR0         REGSYM    ---      FLOAT     temp2
      REG=2       REGSYM    ---      ---       F_S
      DR28        REGSYM    ---      FLOAT     ek
      DR4         REGSYM    ---      FLOAT     value

      ---         MODULE    ---      ---       pid
      00FF4934H   PUBLIC    CODE     ---       Incremental_PI_L
      00FF49D0H   PUBLIC    CODE     ---       Incremental_PI_R
      00FF55A1H   PUBLIC    CODE     ---       abs_float
      00FF507EH   PUBLIC    CODE     ---       pid_duoji_normal_sqrt
      0000054FH   PUBLIC    EDATA    FLOAT     Velocity_KP_R
      00000553H   PUBLIC    EDATA    INT       duojikd_fork
      00000555H   PUBLIC    EDATA    INT       duojikp_round
      00000557H   PUBLIC    EDATA    INT       duojikd_normal_sqrt
      00000559H   PUBLIC    EDATA    INT       duojikp_fork
      0000055BH   PUBLIC    EDATA    INT       duojikp_normal_sqrt
      0000055DH   PUBLIC    EDATA    FLOAT     Velocity_KD_L
      00000561H   PUBLIC    EDATA    FLOAT     Velocity_KI_L
      00000565H   PUBLIC    EDATA    FLOAT     Velocity_KD_R
      00000569H   PUBLIC    EDATA    INT       duojikd_round
      0000056BH   PUBLIC    EDATA    FLOAT     Velocity_KI_R
      0000056FH   PUBLIC    EDATA    FLOAT     Velocity_KP_L
      000000D0H   SFRSYM    DATA     BYTE      PSW
      00000088H   SFRSYM    DATA     BYTE      TCON
      00000098H   SFRSYM    DATA     BYTE      SCON
      000000B8H   SFRSYM    DATA     BYTE      IP
      000000A8H   SFRSYM    DATA     BYTE      IE
      000000F8H   SFRSYM    DATA     BYTE      P7
      000000E8H   SFRSYM    DATA     BYTE      P6
      000000C8H   SFRSYM    DATA     BYTE      P5
      000000C0H   SFRSYM    DATA     BYTE      P4
      000000B0H   SFRSYM    DATA     BYTE      P3
      000000A0H   SFRSYM    DATA     BYTE      P2
      00000090H   SFRSYM    DATA     BYTE      P1
      00000080H   SFRSYM    DATA     BYTE      P0
      WR6         REGSYM    ---      INT       p

      00FF55A1H   BLOCK     CODE     ---       LVL=0
      DR28        REGSYM    ---      FLOAT     p
      00FF55A1H   LINE      CODE     ---       #32
      00FF55A3H   LINE      CODE     ---       #34
      00FF55ADH   LINE      CODE     ---       #35
      00FF55B2H   LINE      CODE     ---       #36
      ---         BLOCKEND  ---      ---       LVL=0

      00FF4934H   BLOCK     CODE     ---       LVL=0
      WR6         REGSYM    ---      INT       Encoder
      WR4         REGSYM    ---      INT       Target
      00000573H   SYMBOL    EDATA    INT       Bias
      00000575H   SYMBOL    EDATA    INT       Last_bias
      00000577H   SYMBOL    EDATA    INT       Last_last_bias
L251 LINKER/LOCATER V4.66.93.0                                                        07/17/2022  02:20:12  PAGE 88


      00000579H   SYMBOL    EDATA    INT       Pwm
      00FF4934H   LINE      CODE     ---       #38
      00FF4934H   LINE      CODE     ---       #39
      00FF4934H   LINE      CODE     ---       #42
      00FF493CH   LINE      CODE     ---       #49
      00FF499BH   LINE      CODE     ---       #50
      00FF49ADH   LINE      CODE     ---       #51
      00FF49BFH   LINE      CODE     ---       #53
      00FF49C3H   LINE      CODE     ---       #54
      00FF49CBH   LINE      CODE     ---       #55
      00FF49CFH   LINE      CODE     ---       #56
      ---         BLOCKEND  ---      ---       LVL=0

      00FF49D0H   BLOCK     CODE     ---       LVL=0
      WR6         REGSYM    ---      INT       Encoder
      WR4         REGSYM    ---      INT       Target
      0000057BH   SYMBOL    EDATA    INT       Bias
      0000057DH   SYMBOL    EDATA    INT       Last_bias
      0000057FH   SYMBOL    EDATA    INT       Last_last_bias
      00000581H   SYMBOL    EDATA    INT       Pwm
      00FF49D0H   LINE      CODE     ---       #57
      00FF49D0H   LINE      CODE     ---       #58
      00FF49D0H   LINE      CODE     ---       #61
      00FF49D8H   LINE      CODE     ---       #68
      00FF4A37H   LINE      CODE     ---       #69
      00FF4A49H   LINE      CODE     ---       #70
      00FF4A5BH   LINE      CODE     ---       #72
      00FF4A5FH   LINE      CODE     ---       #73
      00FF4A67H   LINE      CODE     ---       #74
      00FF4A6BH   LINE      CODE     ---       #75
      ---         BLOCKEND  ---      ---       LVL=0

      00FF507EH   BLOCK     CODE     ---       LVL=0
      DR20        REGSYM    ---      FLOAT     dig
      00FF5080H   BLOCK     CODE     NEAR LAB  LVL=1
      00000583H   SYMBOL    EDATA    FLOAT     error
      00000587H   SYMBOL    EDATA    FLOAT     last_error
      0000058BH   SYMBOL    EDATA    INT       servoDuty
      ---         BLOCKEND  ---      ---       LVL=1
      00FF507EH   LINE      CODE     ---       #77
      00FF5080H   LINE      CODE     ---       #78
      00FF5080H   LINE      CODE     ---       #82
      00FF5084H   LINE      CODE     ---       #84
      00FF50B5H   LINE      CODE     ---       #85
      00FF50B9H   LINE      CODE     ---       #86
      00FF50BDH   LINE      CODE     ---       #87
      ---         BLOCKEND  ---      ---       LVL=0
      DR20        REGSYM    ---      FLOAT     dig
      0000058DH   SYMBOL    EDATA    FLOAT     error
      00000591H   SYMBOL    EDATA    FLOAT     last_error
      00000595H   SYMBOL    EDATA    INT       servoDuty
      DR20        REGSYM    ---      FLOAT     dig
      00000597H   SYMBOL    EDATA    FLOAT     error
      0000059BH   SYMBOL    EDATA    FLOAT     last_error
      0000059FH   SYMBOL    EDATA    INT       servoDuty
      DR16        REGSYM    ---      FLOAT     dig
      000005A1H   SYMBOL    EDATA    FLOAT     error
      000005A5H   SYMBOL    EDATA    FLOAT     last_error
      000005A9H   SYMBOL    EDATA    INT       servoDuty

      ---         MODULE    ---      ---       ANO_DT
      0000063BH   PUBLIC    EDATA    BYTE      send_flag
      0000063CH   PUBLIC    EDATA    ---       data_to_send
      000000D0H   SFRSYM    DATA     BYTE      PSW
      00000088H   SFRSYM    DATA     BYTE      TCON
L251 LINKER/LOCATER V4.66.93.0                                                        07/17/2022  02:20:12  PAGE 89


      00000098H   SFRSYM    DATA     BYTE      SCON
      000000B8H   SFRSYM    DATA     BYTE      IP
      000000A8H   SFRSYM    DATA     BYTE      IE
      000000F8H   SFRSYM    DATA     BYTE      P7
      000000E8H   SFRSYM    DATA     BYTE      P6
      000000C8H   SFRSYM    DATA     BYTE      P5
      000000C0H   SFRSYM    DATA     BYTE      P4
      000000B0H   SFRSYM    DATA     BYTE      P3
      000000A0H   SFRSYM    DATA     BYTE      P2
      00000090H   SFRSYM    DATA     BYTE      P1
      00000080H   SFRSYM    DATA     BYTE      P0
      REG=2       REGSYM    ---      ---       dataToSend
      R5          REGSYM    ---      BYTE      length
      R10         REGSYM    ---      BYTE      sum
      R11         REGSYM    ---      BYTE      i

      ---         MODULE    ---      ---       SPRINTF
      000005FDH   PUBLIC    EDATA    ---       ?SPRINTF?BYTE
      00FF0EAEH   PUBLIC    CODE     NEAR LAB  SPRINTF

      ---         MODULE    ---      ---       atan2

      ---         MODULE    ---      ---       ?C?PRNFMT
      00FF0EFBH   PUBLIC    CODE     ---       ?C?PRNFMT

      ---         MODULE    ---      ---       ?C?FPCONVERT
      00FF1318H   PUBLIC    CODE     ---       ?C?FPCONVERT
      00FF13D0H   PUBLIC    CODE     ---       ?C?FPROUND

      ---         MODULE    ---      ---       ?C?FTNPWR
      00FF1443H   PUBLIC    CODE     ---       ?C?FTNPWR

      ---         MODULE    ---      ---       ?C_START
      00FF0000H   PUBLIC    CODE     ---       ?C?STARTUP
      00FF0000H   PUBLIC    CODE     ---       ?C_STARTUP

      ---         MODULE    ---      ---       ?C?INITEDATA
      00FF50D1H   PUBLIC    CODE     ---       ?C?INITEDATA

      ---         MODULE    ---      ---       ?C?SIDIV
      00FF147AH   PUBLIC    CODE     ---       ?C?SIDIV

      ---         MODULE    ---      ---       ?C?LIMUL
      00FF14ACH   PUBLIC    CODE     ---       ?C?LIMUL

      ---         MODULE    ---      ---       ?C?BMOVENP
      00FF14B7H   PUBLIC    CODE     ---       ?C?BMOVENP
      00FF14B5H   PUBLIC    CODE     ---       ?C?BMOVENP8

      ---         MODULE    ---      ---       STRNCMP

      ---         MODULE    ---      ---       STRLEN

      ---         MODULE    ---      ---       memcpy

      ---         MODULE    ---      ---       ?C?INITEDATA_END
      00FF6025H   PUBLIC    HCONST   WORD      ?C?INITEDATA_END

Program Size: data=8.0 edata+hdata=1973 xdata=0 const=3050 code=22007
L251 RUN COMPLETE.  0 WARNING(S),  0 ERROR(S)
