L251 LINKER/LOCATER V4.66.93.0                                                          12/21/2021  22:07:38  PAGE 1


L251 LINKER/LOCATER V4.66.93.0, INVOKED BY:
D:\KEIL_V5\C251\BIN\L251.EXE .\Objects\main.obj, .\Objects\LQ_ADC.obj, .\Objects\LQ_GPIO_EXIT.obj, .\Objects\LQ_GPIO_KEY
>> .obj, .\Objects\LQ_GPIO_LED.obj, .\Objects\LQ_I2C.obj, .\Objects\LQ_OLED096.obj, .\Objects\LQ_SPI.obj, .\Objects\LQ_T
>> IMER.obj, .\Objects\LQ_ICM20689.obj, .\Objects\LQ_MotorServo.obj, .\Objects\LQ_Encoder.obj, .\Objects\LQ_UART.obj, .\
>> Objects\ANO_DT.obj, .\Objects\LQ_SOFTI2C.obj, .\Objects\LQ_dianci.obj TO .\Objects\LQdemo PRINT (.\Listings\LQdemo.ma
>> p) CASE REMOVEUNUSED CLASSES (EDATA (0X0-0X1FFF), HDATA (0X0-0X1FFF))


CPU MODE:     251 SOURCE MODE
INTR FRAME:   2 BYTES SAVED ON INTERRUPT
MEMORY MODEL: LARGE WITH FLOATING POINT ARITHMETIC


INPUT MODULES INCLUDED:
  .\Objects\main.obj (main)
         COMMENT TYPE 0: C251 V5.60.0
  .\Objects\LQ_ADC.obj (LQ_ADC)
         COMMENT TYPE 0: C251 V5.60.0
  .\Objects\LQ_GPIO_EXIT.obj (LQ_GPIO_EXIT)
         COMMENT TYPE 0: C251 V5.60.0
  .\Objects\LQ_GPIO_KEY.obj (LQ_GPIO_KEY)
         COMMENT TYPE 0: C251 V5.60.0
  .\Objects\LQ_GPIO_LED.obj (LQ_GPIO_LED)
         COMMENT TYPE 0: C251 V5.60.0
  .\Objects\LQ_I2C.obj (LQ_I2C)
         COMMENT TYPE 0: C251 V5.60.0
  .\Objects\LQ_OLED096.obj (LQ_OLED096)
         COMMENT TYPE 0: C251 V5.60.0
  .\Objects\LQ_SPI.obj (LQ_SPI)
         COMMENT TYPE 0: C251 V5.60.0
  .\Objects\LQ_TIMER.obj (LQ_TIMER)
         COMMENT TYPE 0: C251 V5.60.0
  .\Objects\LQ_ICM20689.obj (LQ_ICM20689)
         COMMENT TYPE 0: C251 V5.60.0
  .\Objects\LQ_MotorServo.obj (LQ_MotorServo)
         COMMENT TYPE 0: C251 V5.60.0
  .\Objects\LQ_Encoder.obj (LQ_Encoder)
         COMMENT TYPE 0: C251 V5.60.0
  .\Objects\LQ_UART.obj (LQ_UART)
         COMMENT TYPE 0: C251 V5.60.0
  .\Objects\ANO_DT.obj (ANO_DT)
         COMMENT TYPE 0: C251 V5.60.0
  .\Objects\LQ_SOFTI2C.obj (LQ_SOFTI2C)
         COMMENT TYPE 0: C251 V5.60.0
  .\Objects\LQ_dianci.obj (LQ_dianci)
         COMMENT TYPE 0: C251 V5.60.0
  D:\KEIL_V5\C251\LIB\C2SFPL.LIB (?C?FPADD)
         COMMENT TYPE 0: A251 V4.69.6.0
  D:\KEIL_V5\C251\LIB\C2SFPL.LIB (?C?FPMUL)
         COMMENT TYPE 0: A251 V4.69.6.0
  D:\KEIL_V5\C251\LIB\C2SFPL.LIB (?C?FPDIV)
         COMMENT TYPE 0: A251 V4.69.6.0
  D:\KEIL_V5\C251\LIB\C2SFPL.LIB (?C?FCAST)
         COMMENT TYPE 0: A251 V4.69.6.0
  D:\KEIL_V5\C251\LIB\C2SFPL.LIB (?C?CASTF)
         COMMENT TYPE 0: A251 V4.69.6.0
  D:\KEIL_V5\C251\LIB\C2SFPL.LIB (SPRINTF)
         COMMENT TYPE 0: A251 V4.69.6.0
  D:\KEIL_V5\C251\LIB\C2SFPL.LIB (atan2)
         COMMENT TYPE 0: C251 V5.58.7
  D:\KEIL_V5\C251\LIB\C2SFPL.LIB (?C?FPGETOPN)
         COMMENT TYPE 0: A251 V4.69.6.0
  D:\KEIL_V5\C251\LIB\C2SFPL.LIB (?C?FPCMP)
         COMMENT TYPE 0: A251 V4.69.6.0
  D:\KEIL_V5\C251\LIB\C2SFPL.LIB (?C?PRNFMT)
         COMMENT TYPE 0: A251 V4.69.6.0
L251 LINKER/LOCATER V4.66.93.0                                                        12/21/2021  22:07:38  PAGE 2


  D:\KEIL_V5\C251\LIB\C2SFPL.LIB (ATAN?_)
         COMMENT TYPE 0: A251 V4.69.6.0
  D:\KEIL_V5\C251\LIB\C2SFPL.LIB (?C?FPCONVERT)
         COMMENT TYPE 0: A251 V4.69.6.0
  D:\KEIL_V5\C251\LIB\C2SFPL.LIB (?C?FPSERIES)
         COMMENT TYPE 0: A251 V4.69.6.0
  D:\KEIL_V5\C251\LIB\C2SFPL.LIB (?C?FTNPWR)
         COMMENT TYPE 0: A251 V4.69.6.0
  D:\KEIL_V5\C251\LIB\C2SL.LIB (?C_START)
         COMMENT TYPE 0: A251 V4.69.6.0
  D:\KEIL_V5\C251\LIB\C2SL.LIB (?C?INITHDATA)
         COMMENT TYPE 0: A251 V4.69.6.0
  D:\KEIL_V5\C251\LIB\C2SL.LIB (?C?SIDIV)
         COMMENT TYPE 0: A251 V4.69.6.0
  D:\KEIL_V5\C251\LIB\C2SL.LIB (?C?LIMUL)
         COMMENT TYPE 0: A251 V4.69.6.0
  D:\KEIL_V5\C251\LIB\C2SL.LIB (?C?ULDIV)
         COMMENT TYPE 0: A251 V4.69.6.0
  D:\KEIL_V5\C251\LIB\C2SL.LIB (?C?SLDIV)
         COMMENT TYPE 0: A251 V4.69.6.0
  D:\KEIL_V5\C251\LIB\C2SL.LIB (?C?BMOVEPP)
         COMMENT TYPE 0: A251 V4.69.6.0
  D:\KEIL_V5\C251\LIB\C2SL.LIB (?C?INITHDATA_END)
         COMMENT TYPE 0: A251 V4.69.6.0


ACTIVE MEMORY CLASSES OF MODULE:  .\Objects\LQdemo (main)

BASE        START       END         USED      MEMORY CLASS
==========================================================
000000H     000000H     001FFFH     000100H   EDATA
000000H     000000H     001FFFH               HDATA
000000H     FF0000H     FFFFFFH     001134H   HCONST
FF0000H     FF0000H     FFFFFFH     001D8CH   CODE
010000H     010000H     01FFFFH     000101H   XDATA
000000H     000000H     00007FH     000010H   DATA
FF0000H     FF0000H     FFFFFFH     000004H   CONST


MEMORY MAP OF MODULE:  .\Objects\LQdemo (main)


START     STOP      LENGTH    ALIGN  RELOC    MEMORY CLASS   SEGMENT NAME
=========================================================================
000000H   000007H   000008H   ---    AT..     DATA           "REG BANK 0"
000008H   00000FH   000008H   BYTE   UNIT     DATA           ?DT?LQ_DIANCI
000010H   00010FH   000100H   BYTE   UNIT     EDATA          ?STACK
000110H   00FFFFH   00FEF0H   ---    ---      **GAP**
010000H   010045H   000046H   BYTE   UNIT     XDATA          _XDATA_GROUP_
010046H   010081H   00003CH   BYTE   INSEG    XDATA          ?XD?LQ_UART
010082H   0100BBH   00003AH   BYTE   INSEG    XDATA          ?XD?LQ_DIANCI
0100BCH   0100EDH   000032H   BYTE   INSEG    XDATA          ?XD?ANO_DT
0100EEH   0100F5H   000008H   BYTE   INSEG    XDATA          ?XD?LQ_MOTORSERVO
0100F6H   0100FAH   000005H   BYTE   INSEG    XDATA          ?XD?LQ_GPIO_EXIT
0100FBH   0100FEH   000004H   BYTE   INSEG    XDATA          ?XD?LQ_ICM20689
0100FFH   010100H   000002H   BYTE   INSEG    XDATA          ?XD?LQ_GPIO_LED
010101H   FEFFFFH   FDFEFFH   ---    ---      **GAP**
FF0000H   FF0002H   000003H   ---    OFFS..   CODE           ?CO?start251?4
FF0003H   FF0005H   000003H   ---    OFFS..   CODE           ?PR?IV?0
FF0006H   FF0006H   000001H   BYTE   INSEG    CODE           ?PR?TIMER2_INT?LQ_TIMER
FF0007H   FF000AH   000004H   BYTE   UNIT     CONST          ?CO?PRINTF
FF000BH   FF000DH   000003H   ---    OFFS..   CODE           ?PR?IV?1
FF000EH   FF0012H   000005H   ---    ---      **GAP**
FF0013H   FF0015H   000003H   ---    OFFS..   CODE           ?PR?IV?2
FF0016H   FF0022H   00000DH   ---    ---      **GAP**
L251 LINKER/LOCATER V4.66.93.0                                                        12/21/2021  22:07:38  PAGE 3


FF0023H   FF0025H   000003H   ---    OFFS..   CODE           ?PR?IV?4
FF0026H   FF0059H   000034H   BYTE   INSEG    CODE           ?PR?OLED_CLS?LQ_OLED096
FF005AH   FF005AH   000001H   ---    ---      **GAP**
FF005BH   FF005DH   000003H   ---    OFFS..   CODE           ?PR?IV?11
FF005EH   FF0062H   000005H   ---    ---      **GAP**
FF0063H   FF0065H   000003H   ---    OFFS..   CODE           ?PR?IV?12
FF0066H   FF0082H   00001DH   BYTE   INSEG    CODE           ?PR?TIMER0_INIT?LQ_TIMER
FF0083H   FF0085H   000003H   ---    OFFS..   CODE           ?PR?IV?16
FF0086H   FF0092H   00000DH   ---    ---      **GAP**
FF0093H   FF0095H   000003H   ---    OFFS..   CODE           ?PR?IV?18
FF0096H   FF009AH   000005H   ---    ---      **GAP**
FF009BH   FF009DH   000003H   ---    OFFS..   CODE           ?PR?IV?19
FF009EH   FF00A2H   000005H   ---    ---      **GAP**
FF00A3H   FF00A5H   000003H   ---    OFFS..   CODE           ?PR?IV?20
FF00A6H   FF0B6BH   000AC6H   BYTE   UNIT     CODE           ?C?LIB_CODE
FF0B6CH   FF0FDCH   000471H   BYTE   INSEG    CODE           ?PR?CONTROL?LQ_DIANCI
FF0FDDH   FF11ACH   0001D0H   BYTE   INSEG    CODE           ?PR?OLED_P14X16STR?LQ_OLED096
FF11ADH   FF133CH   000190H   BYTE   INSEG    CODE           ?PR?INDUCTORNORMAL?LQ_DIANCI
FF133DH   FF147EH   000142H   BYTE   INSEG    CODE           ?PR?DISCERN?LQ_DIANCI
FF147FH   FF1593H   000115H   BYTE   INSEG    CODE           ?PR?OLED_SHOW?LQ_DIANCI
FF1594H   FF168DH   0000FAH   BYTE   INSEG    CODE           ?PR?MOTORINIT?LQ_MOTORSERVO
FF168EH   FF176FH   0000E2H   BYTE   INSEG    CODE           ?PR?LED_CTRL?LQ_GPIO_LED
FF1770H   FF181FH   0000B0H   BYTE   INSEG    CODE           ?PR?OLED_P6X8STR?LQ_OLED096
FF1820H   FF18CDH   0000AEH   BYTE   INSEG    CODE           ?PR?OLED_INIT?LQ_OLED096
FF18CEH   FF1961H   000094H   BYTE   INSEG    CODE           ?PR?SERVOINIT?LQ_MOTORSERVO
FF1962H   FF19ECH   00008BH   BYTE   INSEG    CODE           ?PR?MOTORCTRL?LQ_MOTORSERVO
FF19EDH   FF1A50H   000064H   BYTE   INSEG    CODE           ?PR?TIMER0_INT?LQ_DIANCI
FF1A51H   FF1AACH   00005CH   BYTE   INSEG    CODE           ?PR?READ_ENCODER?LQ_ENCODER
FF1AADH   FF1AFCH   000050H   BYTE   INSEG    CODE           ?PR?SYSINIT?MAIN
FF1AFDH   FF1B0FH   000013H   BYTE   UNIT     CODE           ?C_C51STARTUP
FF1B10H   FF1B40H   000031H   BYTE   UNIT     CODE           ?C_C51STARTUP?2
FF1B41H   FF1B43H   000003H   BYTE   UNIT     CODE           ?C_C51STARTUP?3
FF1B44H   FF1B86H   000043H   BYTE   INSEG    CODE           ?PR?MAIN?MAIN
FF1B87H   FF1BBFH   000039H   BYTE   INSEG    CODE           ?PR?UART4_INT?LQ_UART
FF1BC0H   FF1BF5H   000036H   BYTE   INSEG    CODE           ?PR?TIMER3_INT?LQ_TIMER
FF1BF6H   FF1C2BH   000036H   BYTE   INSEG    CODE           ?PR?TIMER4_INT?LQ_TIMER
FF1C2CH   FF1C5BH   000030H   BYTE   INSEG    CODE           ?PR?ADC_READ?LQ_ADC
FF1C5CH   FF1C80H   000025H   BYTE   INSEG    CODE           ?PR?OLED_WRCMD?LQ_OLED096
FF1C81H   FF1CA5H   000025H   BYTE   INSEG    CODE           ?PR?OLED_WRDAT?LQ_OLED096
FF1CA6H   FF1CC8H   000023H   BYTE   INSEG    CODE           ?PR?OLED_SET_POS?LQ_OLED096
FF1CC9H   FF1CE5H   00001DH   BYTE   INSEG    CODE           ?PR?TIMER1_INIT?LQ_TIMER
FF1CE6H   FF1D00H   00001BH   BYTE   INSEG    CODE           ?PR?SERVOCTRL?LQ_MOTORSERVO
FF1D01H   FF1D1AH   00001AH   BYTE   INSEG    CODE           ?PR?ADC_INIT?LQ_ADC
FF1D1BH   FF1D31H   000017H   BYTE   INSEG    CODE           ?PR?INT0_INT?LQ_GPIO_EXIT
FF1D32H   FF1D48H   000017H   BYTE   INSEG    CODE           ?PR?INT1_INT?LQ_GPIO_EXIT
FF1D49H   FF1D5FH   000017H   BYTE   INSEG    CODE           ?PR?INT3_INT?LQ_GPIO_EXIT
FF1D60H   FF1D76H   000017H   BYTE   INSEG    CODE           ?PR?INT4_INT?LQ_GPIO_EXIT
FF1D77H   FF1D8DH   000017H   BYTE   INSEG    CODE           ?PR?DELAYMS?LQ_SOFTI2C
FF1D8EH   FF1DA0H   000013H   BYTE   INSEG    CODE           ?PR?TIMER34ENCINIT?LQ_ENCODER
FF1DA1H   FF1DAFH   00000FH   BYTE   INSEG    CODE           ?PR?GPIO_KEY_INIT?LQ_GPIO_KEY
FF1DB0H   FF1DBEH   00000FH   BYTE   INSEG    CODE           ?PR?UART1_INT?LQ_UART
FF1DBFH   FF2C6CH   000EAEH   BYTE   UNIT     HCONST         ?HC?LQ_OLED096
FF2C6DH   FF2D49H   0000DDH   BYTE   UNIT     HCONST         ?C_INITHDATA
FF2D4AH   FF2DBFH   000076H   BYTE   UNIT     HCONST         ?HC?LQ_GPIO_KEY
FF2DC0H   FF2E08H   000049H   BYTE   UNIT     HCONST         ?HC?LQ_ADC
FF2E09H   FF2E4BH   000043H   BYTE   UNIT     HCONST         ?HC?LQ_MOTORSERVO
FF2E4CH   FF2E8DH   000042H   BYTE   UNIT     HCONST         ?HC?LQ_DIANCI
FF2E8EH   FF2EBCH   00002FH   BYTE   UNIT     HCONST         ?HC?LQ_ICM20689
FF2EBDH   FF2EE1H   000025H   BYTE   UNIT     HCONST         ?HC?LQ_ENCODER
FF2EE2H   FF2EF2H   000011H   BYTE   UNIT     HCONST         ?HC?MAIN

* * * * * * * * *   R E M O V E D     S E G M E N T S   * * * * * * * *
   *DEL*:           000050H   BYTE   INSEG    CODE           ?PR?ADC_READ_AVERAGE?LQ_ADC
   *DEL*:           0000FFH   BYTE   INSEG    CODE           ?PR?TEST_ADC?LQ_ADC
   *DEL*:           000004H   BYTE   UNIT     XDATA          ?XD?ADC_READ_AVERAGE?LQ_ADC
L251 LINKER/LOCATER V4.66.93.0                                                        12/21/2021  22:07:38  PAGE 4


   *DEL*:           00001EH   BYTE   UNIT     XDATA          ?XD?TEST_ADC?LQ_ADC
   *DEL*:           000008H   BYTE   UNIT     DATA           ?DT?TEST_ADC?LQ_ADC
   *DEL*:           000012H   BYTE   INSEG    CODE           ?PR?GPIO_EXIT_INIT?LQ_GPIO_EXIT
   *DEL*:           00000FH   BYTE   INSEG    CODE           ?PR?TEST_GPIO_EXIT_INIT?LQ_GPIO_EXIT
   *DEL*:           0000D6H   BYTE   INSEG    CODE           ?PR?TEST_COMKEY_TFT?LQ_GPIO_KEY
   *DEL*:           000022H   BYTE   INSEG    CODE           ?PR?KEY_READ_COMB?LQ_GPIO_KEY
   *DEL*:           00005FH   BYTE   INSEG    CODE           ?PR?KEY_READ?LQ_GPIO_KEY
   *DEL*:           000046H   BYTE   INSEG    CODE           ?PR?TEST_GPIO_KEY?LQ_GPIO_KEY
   *DEL*:           00000EH   BYTE   INSEG    CODE           ?PR?GPIO_LED_INIT?LQ_GPIO_LED
   *DEL*:           000021H   BYTE   INSEG    CODE           ?PR?LED_FLASH?LQ_GPIO_LED
   *DEL*:           000017H   BYTE   INSEG    CODE           ?PR?TEST_GPIO_LED?LQ_GPIO_LED
   *DEL*:           000053H   BYTE   INSEG    CODE           ?PR?READNBYTE?LQ_I2C
   *DEL*:           000017H   BYTE   INSEG    CODE           ?PR?SENDDATA?LQ_I2C
   *DEL*:           00001CH   BYTE   INSEG    CODE           ?PR?RECVDATA?LQ_I2C
   *DEL*:           000010H   BYTE   INSEG    CODE           ?PR?START?LQ_I2C
   *DEL*:           00003CH   BYTE   INSEG    CODE           ?PR?WRITENBYTE?LQ_I2C
   *DEL*:           000017H   BYTE   INSEG    CODE           ?PR?WAIT?LQ_I2C
   *DEL*:           000010H   BYTE   INSEG    CODE           ?PR?STOP?LQ_I2C
   *DEL*:           000016H   BYTE   INSEG    CODE           ?PR?I2C_INIT?LQ_I2C
   *DEL*:           000018H   BYTE   INSEG    CODE           ?PR?SENDACK?LQ_I2C
   *DEL*:           000010H   BYTE   INSEG    CODE           ?PR?RECVACK?LQ_I2C
   *DEL*:           000019H   BYTE   INSEG    CODE           ?PR?SENDNAK?LQ_I2C
   *DEL*:           000002H   BYTE   UNIT     XDATA          ?XD?WRITENBYTE?LQ_I2C
   *DEL*:           000002H   BYTE   UNIT     XDATA          ?XD?READNBYTE?LQ_I2C
   *DEL*:           00018FH   BYTE   INSEG    CODE           ?PR?OLED_ROAD?LQ_OLED096
   *DEL*:           000035H   BYTE   INSEG    CODE           ?PR?OLED_FILL?LQ_OLED096
   *DEL*:           00013DH   BYTE   INSEG    CODE           ?PR?OLED_RECTANGLE?LQ_OLED096
   *DEL*:           000072H   BYTE   INSEG    CODE           ?PR?TEST_OLED?LQ_OLED096
   *DEL*:           0000FFH   BYTE   INSEG    CODE           ?PR?OLED_P8X16STR?LQ_OLED096
   *DEL*:           000035H   BYTE   INSEG    CODE           ?PR?OLED_SHOW_LQLOGO?LQ_OLED096
   *DEL*:           000053H   BYTE   INSEG    CODE           ?PR?OLED_PUTPIXEL?LQ_OLED096
   *DEL*:           00003CH   BYTE   INSEG    CODE           ?PR?OLED_CLRDOT?LQ_OLED096
   *DEL*:           0000B6H   BYTE   INSEG    CODE           ?PR?OLED_SHOW_FRAME80?LQ_OLED096
   *DEL*:           0000B6H   BYTE   INSEG    CODE           ?PR?OLED_SHOW_FRAME94?LQ_OLED096
   *DEL*:           0000BCH   BYTE   INSEG    CODE           ?PR?OLED_SHOW_BMP?LQ_OLED096
   *DEL*:           000009H   BYTE   INSEG    CODE           ?PR?LQ_OLED_SHORT_DELAY?LQ_OLED096
   *DEL*:           000003H   BYTE   UNIT     XDATA          ?XD?OLED_RECTANGLE?LQ_OLED096
   *DEL*:           000006H   BYTE   UNIT     XDATA          ?XD?OLED_P8X16STR?LQ_OLED096
   *DEL*:           000007H   BYTE   UNIT     XDATA          ?XD?OLED_SHOW_BMP?LQ_OLED096
   *DEL*:           000009H   BYTE   UNIT     XDATA          ?XD?OLED_ROAD?LQ_OLED096
   *DEL*:           000010H   BYTE   UNIT     XDATA          ?XD?TEST_OLED?LQ_OLED096
   *DEL*:           000025H   BYTE   INSEG    CODE           ?PR?SPI_INIT?LQ_SPI
   *DEL*:           00002BH   BYTE   INSEG    CODE           ?PR?SPI_READ_NBYTES?LQ_SPI
   *DEL*:           00003AH   BYTE   INSEG    CODE           ?PR?SPI_WRITE_NBYTES?LQ_SPI
   *DEL*:           00000EH   BYTE   INSEG    CODE           ?PR?SPI_READBYTE?LQ_SPI
   *DEL*:           00000CH   BYTE   INSEG    CODE           ?PR?SPI_WRITEBYTE?LQ_SPI
   *DEL*:           000002H   BYTE   UNIT     XDATA          ?XD?SPI_READ_NBYTES?LQ_SPI
   *DEL*:           000002H   BYTE   UNIT     XDATA          ?XD?SPI_WRITE_NBYTES?LQ_SPI
   *DEL*:           000013H   BYTE   INSEG    CODE           ?PR?TIMER2_INIT?LQ_TIMER
   *DEL*:           000010H   BYTE   INSEG    CODE           ?PR?TIMER3_INIT?LQ_TIMER
   *DEL*:           000010H   BYTE   INSEG    CODE           ?PR?TIMER4_INIT?LQ_TIMER
   *DEL*:           000043H   BYTE   INSEG    CODE           ?PR?SPI_SOFTREADWRITENBYTE?LQ_ICM20689
   *DEL*:           00006CH   BYTE   INSEG    CODE           ?PR?ICM_GET_ACCELEROMETER?LQ_ICM20689
   *DEL*:           000014H   BYTE   INSEG    CODE           ?PR?SPI_SOFTINIT?LQ_ICM20689
   *DEL*:           000041H   BYTE   INSEG    CODE           ?PR?ICM_SET_LPF?LQ_ICM20689
   *DEL*:           00001AH   BYTE   INSEG    CODE           ?PR?ICM_READ_BYTE?LQ_ICM20689
   *DEL*:           000013H   BYTE   INSEG    CODE           ?PR?ICM_SET_ACCEL_FSR?LQ_ICM20689
   *DEL*:           00000EH   BYTE   INSEG    CODE           ?PR?ICM_READ_LEN?LQ_ICM20689
   *DEL*:           000019H   BYTE   INSEG    CODE           ?PR?ICM_WRITE_BYTE?LQ_ICM20689
   *DEL*:           000016H   BYTE   INSEG    CODE           ?PR?ICM20689_RESET?LQ_ICM20689
   *DEL*:           000042H   BYTE   INSEG    CODE           ?PR?ICM_GET_TEMPERATURE?LQ_ICM20689
   *DEL*:           00002FH   BYTE   INSEG    CODE           ?PR?ICM_SET_RATE?LQ_ICM20689
   *DEL*:           0000A5H   BYTE   INSEG    CODE           ?PR?ICM20689_INIT?LQ_ICM20689
   *DEL*:           0000BDH   BYTE   INSEG    CODE           ?PR?ICM_GET_RAW_DATA?LQ_ICM20689
   *DEL*:           00012DH   BYTE   INSEG    CODE           ?PR?TEST_ICM20689?LQ_ICM20689
L251 LINKER/LOCATER V4.66.93.0                                                        12/21/2021  22:07:38  PAGE 5


   *DEL*:           000013H   BYTE   INSEG    CODE           ?PR?ICM_SET_GYRO_FSR?LQ_ICM20689
   *DEL*:           00006CH   BYTE   INSEG    CODE           ?PR?ICM_GET_GYROSCOPE?LQ_ICM20689
   *DEL*:           000018H   BYTE   UNIT     XDATA          ?XD?TEST_ICM20689?LQ_ICM20689
   *DEL*:           000004H   BYTE   UNIT     DATA           ?DT?TEST_ICM20689?LQ_ICM20689
   *DEL*:           00000AH   BYTE   UNIT     XDATA          ?XD?ICM20689_INIT?LQ_ICM20689
   *DEL*:           00000FH   BYTE   UNIT     XDATA          ?XD?ICM_GET_GYROSCOPE?LQ_ICM20689
   *DEL*:           00000FH   BYTE   UNIT     XDATA          ?XD?ICM_GET_ACCELEROMETER?LQ_ICM20689
   *DEL*:           000024H   BYTE   UNIT     XDATA          ?XD?ICM_GET_RAW_DATA?LQ_ICM20689
   *DEL*:           000002H   BYTE   UNIT     XDATA          ?XD?ICM_WRITE_BYTE?LQ_ICM20689
   *DEL*:           000002H   BYTE   UNIT     XDATA          ?XD?ICM_READ_BYTE?LQ_ICM20689
   *DEL*:           000003H   BYTE   UNIT     XDATA          ?XD?ICM_GET_TEMPERATURE?LQ_ICM20689
   *DEL*:           0000A4H   BYTE   INSEG    CODE           ?PR?TESTSERVO?LQ_MOTORSERVO
   *DEL*:           00009DH   BYTE   INSEG    CODE           ?PR?TESTMOTOR?LQ_MOTORSERVO
   *DEL*:           000010H   BYTE   UNIT     XDATA          ?XD?TESTMOTOR?LQ_MOTORSERVO
   *DEL*:           000010H   BYTE   UNIT     XDATA          ?XD?TESTSERVO?LQ_MOTORSERVO
   *DEL*:           0000E6H   BYTE   INSEG    CODE           ?PR?TESTENCODER?LQ_ENCODER
   *DEL*:           000012H   BYTE   UNIT     XDATA          ?XD?TESTENCODER?LQ_ENCODER
   *DEL*:           000004H   BYTE   INSEG    CODE           ?PR?UART1_PUTCHAR?LQ_UART
   *DEL*:           000004H   BYTE   INSEG    CODE           ?PR?UART4_PUTCHAR?LQ_UART
   *DEL*:           000034H   BYTE   INSEG    CODE           ?PR?UART4_PUTBUFF?LQ_UART
   *DEL*:           000018H   BYTE   INSEG    CODE           ?PR?SETTIMER2BAUDRAYE?LQ_UART
   *DEL*:           000016H   BYTE   INSEG    CODE           ?PR?UART1_PUTSTR?LQ_UART
   *DEL*:           000016H   BYTE   INSEG    CODE           ?PR?UART4_PUTSTR?LQ_UART
   *DEL*:           00003DH   BYTE   INSEG    CODE           ?PR?UART1_CONFIG?LQ_UART
   *DEL*:           000025H   BYTE   INSEG    CODE           ?PR?UART4_CONFIG?LQ_UART
   *DEL*:           000003H   BYTE   INSEG    CODE           ?PR?UART1_GETCHAR?LQ_UART
   *DEL*:           000003H   BYTE   INSEG    CODE           ?PR?UART4_GETCHAR?LQ_UART
   *DEL*:           000004H   BYTE   UNIT     XDATA          ?XD?UART4_PUTBUFF?LQ_UART
   *DEL*:           000005H   BYTE   INSEG    CODE           ?PR?ANO_DT_SEND_DATA?ANO_DT
   *DEL*:           00014DH   BYTE   INSEG    CODE           ?PR?ANO_DT_SEND_INT16?ANO_DT
   *DEL*:           000010H   BYTE   UNIT     XDATA          ?XD?ANO_DT_SEND_INT16?ANO_DT
   *DEL*:           00008CH   BYTE   INSEG    CODE           ?PR?IICREADBYTES?LQ_SOFTI2C
   *DEL*:           00000FH   BYTE   INSEG    CODE           ?PR?IICREADBYTE?LQ_SOFTI2C
   *DEL*:           000066H   BYTE   INSEG    CODE           ?PR?IICWRITEBYTES?LQ_SOFTI2C
   *DEL*:           000090H   BYTE   INSEG    CODE           ?PR?IICWRITEBITS?LQ_SOFTI2C
   *DEL*:           00008BH   BYTE   INSEG    CODE           ?PR?LQ_I2C_READ?LQ_SOFTI2C
   *DEL*:           000014H   BYTE   INSEG    CODE           ?PR?IICWRITEBYTE?LQ_SOFTI2C
   *DEL*:           00005AH   BYTE   INSEG    CODE           ?PR?IICWRITEBIT?LQ_SOFTI2C
   *DEL*:           00007DH   BYTE   INSEG    CODE           ?PR?LQ_I2C_WRITE?LQ_SOFTI2C
   *DEL*:           00001EH   BYTE   INSEG    CODE           ?PR?SOFT_IIC_NACK?LQ_SOFTI2C
   *DEL*:           00003BH   BYTE   INSEG    CODE           ?PR?SOFT_IIC_READ_BYTE?LQ_SOFTI2C
   *DEL*:           000048H   BYTE   INSEG    CODE           ?PR?SOFT_IIC_SEND_BYTE?LQ_SOFTI2C
   *DEL*:           00002DH   BYTE   INSEG    CODE           ?PR?I2C_READONEBYTE?LQ_SOFTI2C
   *DEL*:           000032H   BYTE   INSEG    CODE           ?PR?SOFT_IIC_WAIT_ACK?LQ_SOFTI2C
   *DEL*:           000019H   BYTE   INSEG    CODE           ?PR?SOFT_IIC_ACK?LQ_SOFTI2C
   *DEL*:           000027H   BYTE   INSEG    CODE           ?PR?SOFT_IIC_START?LQ_SOFTI2C
   *DEL*:           00000EH   BYTE   INSEG    CODE           ?PR?SOFT_IIC_INIT?LQ_SOFTI2C
   *DEL*:           000017H   BYTE   INSEG    CODE           ?PR?DELAYUS?LQ_SOFTI2C
   *DEL*:           000024H   BYTE   INSEG    CODE           ?PR?SOFT_IIC_STOP?LQ_SOFTI2C
   *DEL*:           000002H   BYTE   UNIT     XDATA          ?XD?LQ_I2C_WRITE?LQ_SOFTI2C
   *DEL*:           000004H   BYTE   UNIT     DATA           ?DT?LQ_I2C_WRITE?LQ_SOFTI2C
   *DEL*:           000002H   BYTE   UNIT     XDATA          ?XD?LQ_I2C_READ?LQ_SOFTI2C
   *DEL*:           000002H   BYTE   UNIT     DATA           ?DT?LQ_I2C_READ?LQ_SOFTI2C
   *DEL*:           000004H   BYTE   UNIT     XDATA          ?XD?IICREADBYTES?LQ_SOFTI2C
   *DEL*:           000004H   BYTE   UNIT     XDATA          ?XD?IICWRITEBYTES?LQ_SOFTI2C
   *DEL*:           000001H   BYTE   UNIT     XDATA          ?XD?IICWRITEBYTE?LQ_SOFTI2C
   *DEL*:           000002H   BYTE   UNIT     XDATA          ?XD?IICWRITEBITS?LQ_SOFTI2C
   *DEL*:           000001H   BYTE   UNIT     XDATA          ?XD?IICWRITEBIT?LQ_SOFTI2C
   *DEL*:           000045H   BYTE   INSEG    CODE           ?PR?ATAN2?_?ATAN2



OVERLAY MAP OF MODULE:   .\Objects\LQdemo (main)


L251 LINKER/LOCATER V4.66.93.0                                                        12/21/2021  22:07:38  PAGE 6


FUNCTION/MODULE                         XDATA_GROUP
--> CALLED FUNCTION/MODULE              START  STOP
===================================================
INT0_int/LQ_GPIO_EXIT                   ----- -----

*** NEW ROOT **************************

INT1_int/LQ_GPIO_EXIT                   ----- -----

*** NEW ROOT **************************

INT3_int/LQ_GPIO_EXIT                   ----- -----

*** NEW ROOT **************************

INT4_int/LQ_GPIO_EXIT                   ----- -----

*** NEW ROOT **************************

timer2_int/LQ_TIMER                     ----- -----

*** NEW ROOT **************************

timer3_int/LQ_TIMER                     ----- -----
  +--> LED_Ctrl/LQ_GPIO_LED

LED_Ctrl/LQ_GPIO_LED                    ----- -----

*** NEW ROOT **************************

timer4_int/LQ_TIMER                     ----- -----
  +--> LED_Ctrl/LQ_GPIO_LED

*** NEW ROOT **************************

UART1_int/LQ_UART                       ----- -----

*** NEW ROOT **************************

UART4_int/LQ_UART                       ----- -----

*** NEW ROOT **************************

timer0_int/LQ_dianci                    ----- -----
  +--> Read_Encoder/LQ_Encoder
  +--> Control/LQ_dianci
  +--> ServoCtrl/LQ_MotorServo
  +--> MotorCtrl/LQ_MotorServo

Read_Encoder/LQ_Encoder                 ----- -----

Control/LQ_dianci                       ----- -----
  +--> InductorNormal/LQ_dianci
  +--> Discern/LQ_dianci

InductorNormal/LQ_dianci                ----- -----
  +--> ADC_Read/LQ_ADC

ADC_Read/LQ_ADC                         ----- -----

Discern/LQ_dianci                       ----- -----

ServoCtrl/LQ_MotorServo                 ----- -----

MotorCtrl/LQ_MotorServo                 ----- -----
L251 LINKER/LOCATER V4.66.93.0                                                        12/21/2021  22:07:38  PAGE 7



*** NEW ROOT **************************

?C_C51STARTUP                           ----- -----

*** NEW ROOT **************************

?C_C51STARTUP?3                         ----- -----
  +--> main/main

main/main                               ----- -----
  +--> sysinit/main
  +--> OLED_Init/LQ_OLED096
  +--> OLED_P14x16Str/LQ_OLED096
  +--> delayms/LQ_SOFTI2C
  +--> GPIO_KEY_Init/LQ_GPIO_KEY
  +--> MotorInit/LQ_MotorServo
  +--> ServoInit/LQ_MotorServo
  +--> ADC_Init/LQ_ADC
  +--> Timer34EncInit/LQ_Encoder
  +--> Timer0_init/LQ_TIMER
  +--> Timer1_init/LQ_TIMER
  +--> OLED_CLS/LQ_OLED096
  +--> OLED_show/LQ_dianci

sysinit/main                            ----- -----

OLED_Init/LQ_OLED096                    ----- -----
  +--> delayms/LQ_SOFTI2C
  +--> OLED_WrCmd/LQ_OLED096
  +--> OLED_CLS/LQ_OLED096
  +--> OLED_Set_Pos/LQ_OLED096

delayms/LQ_SOFTI2C                      ----- -----

OLED_WrCmd/LQ_OLED096                   ----- -----

OLED_CLS/LQ_OLED096                     ----- -----
  +--> OLED_WrCmd/LQ_OLED096
  +--> OLED_WrDat/LQ_OLED096

OLED_WrDat/LQ_OLED096                   ----- -----

OLED_Set_Pos/LQ_OLED096                 ----- -----
  +--> OLED_WrCmd/LQ_OLED096

OLED_P14x16Str/LQ_OLED096               0000H 0006H
  +--> OLED_Set_Pos/LQ_OLED096
  +--> OLED_WrDat/LQ_OLED096

GPIO_KEY_Init/LQ_GPIO_KEY               ----- -----

MotorInit/LQ_MotorServo                 ----- -----
  +--> ?C?SLDIV/?C?SLDIV

?C?SLDIV/?C?SLDIV                       ----- -----
  +--> ?C?ULIDIV/?C?ULDIV

?C?ULIDIV/?C?ULDIV                      ----- -----

ServoInit/LQ_MotorServo                 ----- -----
  +--> ?C?SLDIV/?C?SLDIV

ADC_Init/LQ_ADC                         ----- -----

L251 LINKER/LOCATER V4.66.93.0                                                        12/21/2021  22:07:38  PAGE 8


Timer34EncInit/LQ_Encoder               ----- -----

Timer0_init/LQ_TIMER                    ----- -----

Timer1_init/LQ_TIMER                    ----- -----

OLED_show/LQ_dianci                     0000H 001DH
  +--> SPRINTF/SPRINTF
  +--> OLED_P6x8Str/LQ_OLED096

SPRINTF/SPRINTF                         001EH 0045H
  +--> OUT/SPRINTF

OUT/SPRINTF                             ----- -----
  +--> PUTCH/SPRINTF

PUTCH/SPRINTF                           ----- -----

OLED_P6x8Str/LQ_OLED096                 001EH 0022H
  +--> OLED_Set_Pos/LQ_OLED096
  +--> OLED_WrDat/LQ_OLED096

*** NEW ROOT **************************

?C_C51STARTUP?2                         ----- -----



PUBLIC SYMBOLS OF MODULE:  .\Objects\LQdemo (main)


      VALUE       CLASS    TYPE      PUBLIC SYMBOL NAME
      =================================================
*DEL*:00000000H   XDATA    BYTE      ?ANO_DT_send_int16?BYTE
      00FF0B45H   CODE     ---       ?C?BMOVEPP
      00FF0B43H   CODE     ---       ?C?BMOVEPP8
      00FF02C2H   CODE     NEAR LAB  ?C?CASTF
      000000FFH   NUMBER   ---       ?C?CODESEG
      00FF028FH   CODE     NEAR LAB  ?C?FCASTC
      00FF028AH   CODE     NEAR LAB  ?C?FCASTI
      00FF0285H   CODE     NEAR LAB  ?C?FCASTL
      00FF09EDH   CODE     ---       ?C?FP2SERIES
      00FF00ACH   CODE     ---       ?C?FPADD
      00FF0372H   CODE     ---       ?C?FPCMP
      00FF0370H   CODE     ---       ?C?FPCMP3
      00FF08F2H   CODE     ---       ?C?FPCONVERT
      00FF0204H   CODE     ---       ?C?FPDIV
      00FF031FH   CODE     ---       ?C?FPGETOPN2
      00FF0164H   CODE     ---       ?C?FPMUL
      00FF035CH   CODE     ---       ?C?FPNANRESULT
      00FF0364H   CODE     ---       ?C?FPOVERFLOW
      00FF0338H   CODE     ---       ?C?FPRESULT
      00FF034EH   CODE     ---       ?C?FPRESULT2
      00FF09AAH   CODE     ---       ?C?FPROUND
      00FF09F6H   CODE     ---       ?C?FPSERIES
      00FF00A9H   CODE     ---       ?C?FPSUB
      00FF0361H   CODE     ---       ?C?FPUNDERFLOW
      00FF0A4AH   CODE     ---       ?C?FTNPWR
      00FF1B10H   CODE     ---       ?C?INITHDATA
      00FF2D48H   HCONST   WORD      ?C?INITHDATA_END
      00FF0AB3H   CODE     ---       ?C?LIMUL
      00FF03E3H   CODE     ---       ?C?PRNFMT
      00FF0A81H   CODE     ---       ?C?SIDIV
      00FF0B0FH   CODE     NEAR LAB  ?C?SLDIV
      00FF0000H   CODE     ---       ?C?STARTUP
L251 LINKER/LOCATER V4.66.93.0                                                        12/21/2021  22:07:38  PAGE 9


      00FF0ABEH   CODE     NEAR LAB  ?C?ULDIV
      00FF0ABCH   CODE     NEAR LAB  ?C?ULIDIV
      00000001H   NUMBER   ---       ?C?XDATASEG
      00FF0000H   CODE     ---       ?C_STARTUP
*DEL*:1FFFFFFCH   XDATA    BYTE      ?ICM_Get_Accelerometer?BYTE
*DEL*:1FFFFFFCH   XDATA    BYTE      ?ICM_Get_Gyroscope?BYTE
*DEL*:1FFFFFFCH   XDATA    BYTE      ?ICM_Get_Raw_data?BYTE
      00010046H   XDATA    ---       ?sprintf?BYTE
*SFR* 000000DCH   DATA     BYTE      ADC_CONTR
      00FF1D01H   CODE     ---       ADC_Init
      00FF1C2CH   CODE     ---       ADC_Read
*DEL*:00000000H   CODE     ---       ADC_Read_Average
*SFR* 000000DDH   DATA     BYTE      ADC_RES
*SFR* 000000DEH   DATA     BYTE      ADC_RESL
*SFR* 000000DFH   DATA     BYTE      ADCCFG
*DEL*:00000000H   CODE     ---       ANO_DT_Send_Data
*DEL*:00000000H   CODE     ---       ANO_DT_send_int16
*DEL*:00000000H   CODE     ---       atan2?_
      00FF0812H   CODE     ---       atan?_
*SFR* 00000093H   DATA     BYTE      AUXR
      00FF0B6CH   CODE     ---       Control
      0001008EH   XDATA    INT       count
      000100BCH   XDATA    ---       data_to_send
      00FF1D77H   CODE     ---       delayms
*DEL*:00000000H   CODE     ---       delayus
      000100A2H   XDATA    INT       Detection_L
      000100A8H   XDATA    INT       Detection_R
      00000008H   DATA     ---       diangan
      00FF133DH   CODE     ---       Discern
*SFR* 000000A8H.7 DATA     BIT       EA
      0001009AH   XDATA    INT       ECPULSE1
      0001009EH   XDATA    INT       ECPULSE2
*SFR* 000000A8H.4 DATA     BIT       ES
*SFR* 000000A8H.1 DATA     BIT       ET0
*SFR* 000000A8H.3 DATA     BIT       ET1
*SFR* 000000E7H.2 DATA     BIT       ET2
*SFR* 000000E7H.5 DATA     BIT       ET3
*SFR* 000000E7H.6 DATA     BIT       ET4
*SFR* 000000A8H.0 DATA     BIT       EX0
*SFR* 000000A8H.2 DATA     BIT       EX1
      00FF1DEAH   HCONST   ---       F14x16
      00FF20DEH   HCONST   ---       F14x16_Idx
      00FF2115H   HCONST   ---       F6x8
      00FF233DH   HCONST   ---       F8X16
      00010088H   XDATA    INT       Fork
      00010098H   XDATA    INT       Fork_L
      0001009CH   XDATA    INT       Fork_R
      000100A4H   XDATA    INT       Forking
      000100AEH   XDATA    INT       Forkout
*DEL*:00000000H   CODE     ---       GPIO_EXIT_Init
      00FF1DA1H   CODE     ---       GPIO_KEY_Init
*DEL*:00000000H   CODE     ---       GPIO_LED_Init
*DEL*:00000000H   CODE     ---       I2C_init
*DEL*:00000000H   CODE     ---       I2C_ReadOneByte
*DEL*:00000000H   CODE     ---       ICM20689_Init
*DEL*:00000000H   CODE     ---       icm20689_reset
*DEL*:00000000H   CODE     ---       ICM_Get_Accelerometer
*DEL*:00000000H   CODE     ---       ICM_Get_Gyroscope
*DEL*:00000000H   CODE     ---       ICM_Get_Raw_data
*DEL*:00000000H   CODE     ---       ICM_Get_Temperature
*DEL*:00000000H   CODE     ---       ICM_Read_Byte
*DEL*:00000000H   CODE     ---       ICM_Read_Len
*DEL*:00000000H   CODE     ---       ICM_Set_Accel_Fsr
*DEL*:00000000H   CODE     ---       ICM_Set_Gyro_Fsr
*DEL*:00000000H   CODE     ---       ICM_Set_LPF
L251 LINKER/LOCATER V4.66.93.0                                                        12/21/2021  22:07:38  PAGE 10


*DEL*:00000000H   CODE     ---       ICM_Set_Rate
*DEL*:00000000H   CODE     ---       ICM_Write_Byte
*SFR* 000000A8H   DATA     BYTE      IE
*SFR* 00000088H.1 DATA     BIT       IE0
*SFR* 00000088H.3 DATA     BIT       IE1
*SFR* 000000E7H   DATA     BYTE      IE2
*DEL*:00000000H   CODE     ---       IICreadByte
*DEL*:00000000H   CODE     ---       IICreadBytes
*DEL*:00000000H   CODE     ---       IICwriteBit
*DEL*:00000000H   CODE     ---       IICwriteBits
*DEL*:00000000H   CODE     ---       IICwriteByte
*DEL*:00000000H   CODE     ---       IICwriteBytes
      00FF11ADH   CODE     ---       InductorNormal
      000100F6H   XDATA    BYTE      INT0_cnt
      00FF1D1BH   CODE     ---       INT0_int
      000100F7H   XDATA    BYTE      INT1_cnt
      00FF1D32H   CODE     ---       INT1_int
      000100F8H   XDATA    BYTE      INT2_cnt
      000100F9H   XDATA    BYTE      INT3_cnt
      00FF1D49H   CODE     ---       INT3_int
      000100FAH   XDATA    BYTE      INT4_cnt
      00FF1D60H   CODE     ---       INT4_int
*SFR* 00000095H   DATA     BYTE      INTCLKO
*SFR* 000000B8H   DATA     BYTE      IP
*SFR* 000000A9H   DATA     BYTE      IRCBAND
*SFR* 00000088H.0 DATA     BIT       IT0
*SFR* 00000088H.2 DATA     BIT       IT1
*DEL*:00000000H   CODE     ---       KEY_Read
*DEL*:00000000H   CODE     ---       KEY_Read_Comb
      00010096H   XDATA    INT       Kp
      00010092H   XDATA    INT       Last_ServoDuty
      000100ACH   XDATA    INT       Last_Target
      00FF168EH   CODE     ---       LED_Ctrl
*DEL*:00000000H   CODE     ---       Led_Flash
      000100BAH   XDATA    INT       leftP
      00010084H   XDATA    INT       leftV
      00FF292DH   HCONST   ---       longqiu104x64
*DEL*:00000000H   CODE     ---       LQ_I2C_Read
*DEL*:00000000H   CODE     ---       LQ_I2C_Write
*SFR* 000000A0H.2 DATA     BIT       LQ_IMU_CE
*SFR* 000000A0H.5 DATA     BIT       LQ_IMU_SCK
*SFR* 000000A0H.3 DATA     BIT       LQ_IMU_SI
*DEL*:00000000H   CODE     ---       lq_oled_short_delay
      000100AAH   XDATA    INT       M_error
      00FF1B44H   CODE     ---       main
      00FF1962H   CODE     ---       MotorCtrl
      000100B0H   XDATA    INT       MotorDuty1
      000100B2H   XDATA    INT       MotorDuty2
      00FF1594H   CODE     ---       MotorInit
      000100A6H   XDATA    INT       MtTargetDuty
*DEL*:00000000H   CODE     ---       OLED_ClrDot
      00FF0026H   CODE     ---       OLED_CLS
*DEL*:00000000H   CODE     ---       OLED_Fill
      00FF1820H   CODE     ---       OLED_Init
      00FF0FDDH   CODE     ---       OLED_P14x16Str
      00FF1770H   CODE     ---       OLED_P6x8Str
*DEL*:00000000H   CODE     ---       OLED_P8x16Str
*DEL*:00000000H   CODE     ---       OLED_PutPixel
*DEL*:00000000H   CODE     ---       OLED_Rectangle
*DEL*:00000000H   CODE     ---       OLED_Road
      00FF1CA6H   CODE     ---       OLED_Set_Pos
      00FF147FH   CODE     ---       OLED_show
*DEL*:00000000H   CODE     ---       OLED_Show_BMP
*DEL*:00000000H   CODE     ---       OLED_Show_Frame80
*DEL*:00000000H   CODE     ---       OLED_Show_Frame94
L251 LINKER/LOCATER V4.66.93.0                                                        12/21/2021  22:07:38  PAGE 11


*DEL*:00000000H   CODE     ---       OLED_Show_LQLogo
      00FF1C5CH   CODE     ---       OLED_WrCmd
      00FF1C81H   CODE     ---       OLED_WrDat
*SFR* 00000080H   DATA     BYTE      P0
*SFR* 00000080H.5 DATA     BIT       P05
*SFR* 00000080H.7 DATA     BIT       P07
*SFR* 000000F2H   DATA     BYTE      P0M0
*SFR* 000000F1H   DATA     BYTE      P0M1
*SFR* 00000090H   DATA     BYTE      P1
*SFR* 000000F4H   DATA     BYTE      P1M0
*SFR* 000000F3H   DATA     BYTE      P1M1
*SFR* 000000A0H   DATA     BYTE      P2
*SFR* 000000A0H.0 DATA     BIT       P20
*SFR* 000000A0H.1 DATA     BIT       P21
*SFR* 000000A0H.2 DATA     BIT       P22
*SFR* 000000A0H.3 DATA     BIT       P23
*SFR* 000000A0H.4 DATA     BIT       P24
*SFR* 000000A0H.5 DATA     BIT       P25
*SFR* 000000F6H   DATA     BYTE      P2M0
*SFR* 000000F5H   DATA     BYTE      P2M1
*SFR* 000000B0H   DATA     BYTE      P3
*SFR* 000000B0H.2 DATA     BIT       P32
*SFR* 000000B0H.3 DATA     BIT       P33
*SFR* 000000FAH   DATA     BYTE      P3M0
*SFR* 000000F9H   DATA     BYTE      P3M1
*SFR* 000000C0H   DATA     BYTE      P4
*SFR* 000000C0H.0 DATA     BIT       P40
*SFR* 000000C0H.2 DATA     BIT       P42
*SFR* 000000FCH   DATA     BYTE      P4M0
*SFR* 000000FBH   DATA     BYTE      P4M1
*SFR* 000000C8H   DATA     BYTE      P5
*SFR* 000000EDH   DATA     BYTE      P5M0
*SFR* 000000ECH   DATA     BYTE      P5M1
*SFR* 000000E8H   DATA     BYTE      P6
*SFR* 000000E8H.1 DATA     BIT       P61
*SFR* 000000E8H.2 DATA     BIT       P62
*SFR* 000000E8H.3 DATA     BIT       P63
*SFR* 000000E8H.4 DATA     BIT       P64
*SFR* 000000EFH   DATA     BYTE      P6M0
*SFR* 000000EEH   DATA     BYTE      P6M1
*SFR* 000000F8H   DATA     BYTE      P7
*SFR* 000000F8H.0 DATA     BIT       P70
*SFR* 000000F8H.1 DATA     BIT       P71
*SFR* 000000F8H.2 DATA     BIT       P72
*SFR* 000000F8H.3 DATA     BIT       P73
*SFR* 000000F8H.5 DATA     BIT       P75
*SFR* 000000F8H.7 DATA     BIT       P77
*SFR* 000000D3H   DATA     BYTE      P7M0
*SFR* 000000D2H   DATA     BYTE      P7M1
*SFR* 0000009AH   DATA     BYTE      P_SW1
*SFR* 0000009BH   DATA     BYTE      P_SW2
*SFR* 000000D0H   DATA     BYTE      PSW
      000100EEH   XDATA    WORD      PWM1_Duty
      000100F0H   XDATA    WORD      PWM2_Duty
      000100F2H   XDATA    WORD      PWM3_Duty
      000100F4H   XDATA    WORD      PWM4_Duty
      000100B8H   XDATA    INT       RAllPulse
      00FF1A51H   CODE     ---       Read_Encoder
*DEL*:00000000H   CODE     ---       ReadNbyte
*DEL*:00000000H   CODE     ---       RecvACK
*DEL*:00000000H   CODE     ---       RecvData
*SFR* 00000098H.4 DATA     BIT       REN
*SFR* 00000098H.0 DATA     BIT       RI
      000100B4H   XDATA    INT       rightP
      000100B6H   XDATA    INT       rightV
L251 LINKER/LOCATER V4.66.93.0                                                        12/21/2021  22:07:38  PAGE 12


      00010086H   XDATA    INT       Round
      0001008AH   XDATA    INT       Round_In
      0001008CH   XDATA    INT       Round_Out
      000100A0H   XDATA    INT       Rounding
*SFR* 000000FFH   DATA     BYTE      RSTCFG
*SFR* 000000BDH   DATA     BYTE      S4BUF
*SFR* 000000BCH   DATA     BYTE      S4CON
*SFR* 00000099H   DATA     BYTE      SBUF
*SFR* 00000098H   DATA     BYTE      SCON
*DEL*:00000000H   CODE     ---       SendACK
*DEL*:00000000H   CODE     ---       SendData
*DEL*:00000000H   CODE     ---       SendNAK
      00FF1CE6H   CODE     ---       ServoCtrl
      00010094H   XDATA    INT       ServoDuty
      00FF18CEH   CODE     ---       ServoInit
*DEL*:00000000H   CODE     ---       SetTimer2Baudraye
*DEL*:00000000H   CODE     ---       SOFT_IIC_Ack
*DEL*:00000000H   CODE     ---       SOFT_IIC_Init
*DEL*:00000000H   CODE     ---       SOFT_IIC_NAck
*DEL*:00000000H   CODE     ---       SOFT_IIC_Read_Byte
*DEL*:00000000H   CODE     ---       SOFT_IIC_Send_Byte
*DEL*:00000000H   CODE     ---       SOFT_IIC_Start
*DEL*:00000000H   CODE     ---       SOFT_IIC_Stop
*DEL*:00000000H   CODE     ---       SOFT_IIC_Wait_Ack
*SFR* 000000BAH   DATA     BYTE      SPCTL
*SFR* 000000BBH   DATA     BYTE      SPDAT
*DEL*:00000000H   CODE     ---       SPI_init
*DEL*:00000000H   CODE     ---       SPI_Read_Nbytes
*DEL*:00000000H   CODE     ---       SPI_ReadByte
*DEL*:00000000H   CODE     ---       SPI_SoftInit
*DEL*:00000000H   CODE     ---       SPI_SoftReadWriteNbyte
*DEL*:00000000H   CODE     ---       SPI_Write_Nbytes
*DEL*:00000000H   CODE     ---       SPI_WriteByte
      00FF02FFH   CODE     NEAR LAB  sprintf
*SFR* 000000B9H   DATA     BYTE      SPSTAT
*DEL*:00000000H   CODE     ---       Start
*DEL*:00000000H   CODE     ---       Stop
      00FF1AADH   CODE     ---       sysinit
*SFR* 000000CDH   DATA     BYTE      T2H
*SFR* 000000CEH   DATA     BYTE      T2L
*SFR* 000000CBH   DATA     BYTE      T3H
*SFR* 000000CCH   DATA     BYTE      T3L
*SFR* 000000C9H   DATA     BYTE      T4H
*SFR* 000000CAH   DATA     BYTE      T4L
*SFR* 000000DBH   DATA     BYTE      T4T3M
*SFR* 00000088H   DATA     BYTE      TCON
      000100FBH   XDATA    FLOAT     temp_p
      00010082H   XDATA    INT       TempAngle
*DEL*:00000000H   CODE     ---       Test_ADC
*DEL*:00000000H   CODE     ---       Test_ComKEY_Tft
*DEL*:00000000H   CODE     ---       Test_GPIO_EXIT_Init
*DEL*:00000000H   CODE     ---       Test_GPIO_KEY
*DEL*:00000000H   CODE     ---       Test_GPIO_LED
*DEL*:00000000H   CODE     ---       Test_ICM20689
*DEL*:00000000H   CODE     ---       Test_OLED
*DEL*:00000000H   CODE     ---       TestEncoder
*DEL*:00000000H   CODE     ---       TestMotor
*DEL*:00000000H   CODE     ---       TestServo
*SFR* 0000008CH   DATA     BYTE      TH0
*SFR* 0000008DH   DATA     BYTE      TH1
*SFR* 00000098H.1 DATA     BIT       TI
      00010090H   XDATA    INT       time
      00FF0066H   CODE     ---       Timer0_init
      00FF19EDH   CODE     ---       timer0_int
      00FF1CC9H   CODE     ---       Timer1_init
L251 LINKER/LOCATER V4.66.93.0                                                        12/21/2021  22:07:38  PAGE 13


*DEL*:00000000H   CODE     ---       Timer2_init
      00FF0006H   CODE     ---       timer2_int
      00FF1D8EH   CODE     ---       Timer34EncInit
*DEL*:00000000H   CODE     ---       Timer3_init
      00FF1BC0H   CODE     ---       timer3_int
*DEL*:00000000H   CODE     ---       Timer4_init
      00FF1BF6H   CODE     ---       timer4_int
*SFR* 0000008AH   DATA     BYTE      TL0
*SFR* 0000008BH   DATA     BYTE      TL1
*SFR* 00000089H   DATA     BYTE      TMOD
*SFR* 00000088H.4 DATA     BIT       TR0
*SFR* 00000088H.6 DATA     BIT       TR1
*DEL*:00000000H   CODE     ---       UART1_config
*DEL*:00000000H   CODE     ---       UART1_GetChar
      00FF1DB0H   CODE     ---       UART1_int
*DEL*:00000000H   CODE     ---       UART1_PutChar
*DEL*:00000000H   CODE     ---       UART1_PutStr
*DEL*:00000000H   CODE     ---       UART4_config
*DEL*:00000000H   CODE     ---       UART4_GetChar
      00FF1B87H   CODE     ---       UART4_int
*DEL*:00000000H   CODE     ---       UART4_PutBuff
*DEL*:00000000H   CODE     ---       UART4_PutChar
*DEL*:00000000H   CODE     ---       UART4_PutStr
      00010046H   XDATA    BYTE      Uart4_Receive
*SFR* 00000096H   DATA     BYTE      USBADR
*DEL*:00000000H   CODE     ---       Wait
*DEL*:00000000H   CODE     ---       WriteNbyte
*SFR* 00000092H   DATA     BYTE      WTST



SYMBOL TABLE OF MODULE:  .\Objects\LQdemo (main)

      VALUE       REP       CLASS    TYPE      SYMBOL NAME
      ====================================================
      ---         MODULE    ---      ---       main
      00FF1AADH   PUBLIC    CODE     ---       sysinit
      00FF1B44H   PUBLIC    CODE     ---       main
      000000F2H   SFRSYM    DATA     BYTE      P0M0
      000000D0H   SFRSYM    DATA     BYTE      PSW
      000000A9H   SFRSYM    DATA     BYTE      IRCBAND
      00000092H   SFRSYM    DATA     BYTE      WTST
      000000FFH   SFRSYM    DATA     BYTE      RSTCFG
      00000096H   SFRSYM    DATA     BYTE      USBADR
      000000E7H   SFRSYM    DATA     BYTE      IE2
      00000088H   SFRSYM    DATA     BYTE      TCON
      00000098H   SFRSYM    DATA     BYTE      SCON
      000000C0H.0 SFRSYM    DATA     BIT       P40
      000000B8H   SFRSYM    DATA     BYTE      IP
      000000A8H   SFRSYM    DATA     BYTE      IE
      0000009BH   SFRSYM    DATA     BYTE      P_SW2
      000000F8H   SFRSYM    DATA     BYTE      P7
      000000A8H.7 SFRSYM    DATA     BIT       EA
      000000E8H   SFRSYM    DATA     BYTE      P6
      000000C8H   SFRSYM    DATA     BYTE      P5
      000000C0H   SFRSYM    DATA     BYTE      P4
      000000ECH   SFRSYM    DATA     BYTE      P5M1
      000000B0H   SFRSYM    DATA     BYTE      P3
      000000EDH   SFRSYM    DATA     BYTE      P5M0
      000000FBH   SFRSYM    DATA     BYTE      P4M1
      000000A0H   SFRSYM    DATA     BYTE      P2
      000000F9H   SFRSYM    DATA     BYTE      P3M1
      000000FCH   SFRSYM    DATA     BYTE      P4M0
      00000090H   SFRSYM    DATA     BYTE      P1
      000000FAH   SFRSYM    DATA     BYTE      P3M0
L251 LINKER/LOCATER V4.66.93.0                                                        12/21/2021  22:07:38  PAGE 14


      00000080H   SFRSYM    DATA     BYTE      P0
      000000F3H   SFRSYM    DATA     BYTE      P1M1
      000000F1H   SFRSYM    DATA     BYTE      P0M1
      000000F4H   SFRSYM    DATA     BYTE      P1M0

      00FF1B44H   BLOCK     CODE     ---       LVL=0
      00FF1B44H   LINE      CODE     ---       #47
      00FF1B44H   LINE      CODE     ---       #49
      00FF1B47H   LINE      CODE     ---       #51
      00FF1B4AH   LINE      CODE     ---       #53
      00FF1B59H   LINE      CODE     ---       #55
      00FF1B60H   LINE      CODE     ---       #57
      00FF1B63H   LINE      CODE     ---       #58
      00FF1B6AH   LINE      CODE     ---       #59
      00FF1B71H   LINE      CODE     ---       #60
      00FF1B74H   LINE      CODE     ---       #61
      00FF1B77H   LINE      CODE     ---       #62
      00FF1B7AH   LINE      CODE     ---       #63
      00FF1B7DH   LINE      CODE     ---       #64
      00FF1B80H   LINE      CODE     ---       #66
      00FF1B82H   LINE      CODE     ---       #73
      00FF1B82H   LINE      CODE     ---       #76
      00FF1B85H   LINE      CODE     ---       #77
      ---         BLOCKEND  ---      ---       LVL=0

      00FF1AADH   BLOCK     CODE     ---       LVL=0
      00FF1AADH   LINE      CODE     ---       #88
      00FF1AADH   LINE      CODE     ---       #90
      00FF1AB0H   LINE      CODE     ---       #91
      00FF1AB3H   LINE      CODE     ---       #94
      00FF1AB6H   LINE      CODE     ---       #97
      00FF1AC2H   LINE      CODE     ---       #98
      00FF1AC5H   LINE      CODE     ---       #99
      00FF1AC8H   LINE      CODE     ---       #100
      00FF1ACEH   LINE      CODE     ---       #101
      00FF1AD7H   LINE      CODE     ---       #102
      00FF1ADDH   LINE      CODE     ---       #103
      00FF1AE3H   LINE      CODE     ---       #104
      00FF1AE9H   LINE      CODE     ---       #105
      00FF1AEFH   LINE      CODE     ---       #108
      00FF1AF8H   LINE      CODE     ---       #109
      00FF1AFAH   LINE      CODE     ---       #110
      00FF1AFCH   LINE      CODE     ---       #111
      ---         BLOCKEND  ---      ---       LVL=0

      ---         MODULE    ---      ---       LQ_ADC
      00FF1C2CH   PUBLIC    CODE     ---       ADC_Read
      00FF1D01H   PUBLIC    CODE     ---       ADC_Init
      000000D0H   SFRSYM    DATA     BYTE      PSW
      000000DEH   SFRSYM    DATA     BYTE      ADC_RESL
      00000096H   SFRSYM    DATA     BYTE      USBADR
      000000E7H   SFRSYM    DATA     BYTE      IE2
      00000088H   SFRSYM    DATA     BYTE      TCON
      00000098H   SFRSYM    DATA     BYTE      SCON
      000000DCH   SFRSYM    DATA     BYTE      ADC_CONTR
      000000DFH   SFRSYM    DATA     BYTE      ADCCFG
      000000B8H   SFRSYM    DATA     BYTE      IP
      000000DDH   SFRSYM    DATA     BYTE      ADC_RES
      000000A8H   SFRSYM    DATA     BYTE      IE
      0000009BH   SFRSYM    DATA     BYTE      P_SW2
      000000F8H   SFRSYM    DATA     BYTE      P7
      000000E8H   SFRSYM    DATA     BYTE      P6
      000000C8H   SFRSYM    DATA     BYTE      P5
      000000C0H   SFRSYM    DATA     BYTE      P4
      000000B0H   SFRSYM    DATA     BYTE      P3
L251 LINKER/LOCATER V4.66.93.0                                                        12/21/2021  22:07:38  PAGE 15


      000000A0H   SFRSYM    DATA     BYTE      P2
      00000090H   SFRSYM    DATA     BYTE      P1
      00000080H   SFRSYM    DATA     BYTE      P0

      00FF1C2CH   BLOCK     CODE     ---       LVL=0
      R11         REGSYM    ---      BYTE      ADC_Channel_x
      WR6         REGSYM    ---      WORD      temp
      00FF1C2CH   LINE      CODE     ---       #36
      00FF1C2CH   LINE      CODE     ---       #37
      00FF1C2CH   LINE      CODE     ---       #40
      00FF1C2FH   LINE      CODE     ---       #41
      00FF1C32H   LINE      CODE     ---       #43
      00FF1C35H   LINE      CODE     ---       #44
      00FF1C3FH   LINE      CODE     ---       #45
      00FF1C40H   LINE      CODE     ---       #46
      00FF1C41H   LINE      CODE     ---       #47
      00FF1C42H   LINE      CODE     ---       #48
      00FF1C43H   LINE      CODE     ---       #50
      00FF1C48H   LINE      CODE     ---       #51
      00FF1C4BH   LINE      CODE     ---       #52
      00FF1C51H   LINE      CODE     ---       #53
      00FF1C5BH   LINE      CODE     ---       #54
      00FF1C5BH   LINE      CODE     ---       #55
      ---         BLOCKEND  ---      ---       LVL=0
      R14         REGSYM    ---      BYTE      ADC_Channel_x
      R15         REGSYM    ---      BYTE      times
      R13         REGSYM    ---      BYTE      t

      00FF1D01H   BLOCK     CODE     ---       LVL=0
      00FF1D01H   LINE      CODE     ---       #89
      00FF1D01H   LINE      CODE     ---       #91
      00FF1D04H   LINE      CODE     ---       #92
      00FF1D11H   LINE      CODE     ---       #93
      00FF1D14H   LINE      CODE     ---       #94
      00FF1D17H   LINE      CODE     ---       #95
      00FF1D1AH   LINE      CODE     ---       #96
      ---         BLOCKEND  ---      ---       LVL=0

      ---         MODULE    ---      ---       LQ_GPIO_EXIT
      00FF1D1BH   PUBLIC    CODE     ---       INT0_int
      00FF1D32H   PUBLIC    CODE     ---       INT1_int
      00FF1D49H   PUBLIC    CODE     ---       INT3_int
      00FF1D60H   PUBLIC    CODE     ---       INT4_int
      000100F6H   PUBLIC    XDATA    BYTE      INT0_cnt
      000100F7H   PUBLIC    XDATA    BYTE      INT1_cnt
      000100F8H   PUBLIC    XDATA    BYTE      INT2_cnt
      000100F9H   PUBLIC    XDATA    BYTE      INT3_cnt
      000100FAH   PUBLIC    XDATA    BYTE      INT4_cnt
      000000D0H   SFRSYM    DATA     BYTE      PSW
      00000088H.2 SFRSYM    DATA     BIT       IT1
      000000A8H.2 SFRSYM    DATA     BIT       EX1
      00000088H.0 SFRSYM    DATA     BIT       IT0
      000000A8H.0 SFRSYM    DATA     BIT       EX0
      00000096H   SFRSYM    DATA     BYTE      USBADR
      000000E7H   SFRSYM    DATA     BYTE      IE2
      00000088H.3 SFRSYM    DATA     BIT       IE1
      00000088H.1 SFRSYM    DATA     BIT       IE0
      00000088H   SFRSYM    DATA     BYTE      TCON
      00000098H   SFRSYM    DATA     BYTE      SCON
      000000B8H   SFRSYM    DATA     BYTE      IP
      00000095H   SFRSYM    DATA     BYTE      INTCLKO
      000000A8H   SFRSYM    DATA     BYTE      IE
      000000F8H   SFRSYM    DATA     BYTE      P7
      000000A8H.7 SFRSYM    DATA     BIT       EA
      000000E8H   SFRSYM    DATA     BYTE      P6
L251 LINKER/LOCATER V4.66.93.0                                                        12/21/2021  22:07:38  PAGE 16


      000000C8H   SFRSYM    DATA     BYTE      P5
      000000C0H   SFRSYM    DATA     BYTE      P4
      000000B0H   SFRSYM    DATA     BYTE      P3
      000000A0H   SFRSYM    DATA     BYTE      P2
      00000090H   SFRSYM    DATA     BYTE      P1
      00000080H   SFRSYM    DATA     BYTE      P0

      00FF1D1BH   BLOCK     CODE     ---       LVL=0
      00FF1D1BH   LINE      CODE     ---       #44
      00FF1D23H   LINE      CODE     ---       #46
      00FF1D29H   LINE      CODE     ---       #47
      ---         BLOCKEND  ---      ---       LVL=0

      00FF1D32H   BLOCK     CODE     ---       LVL=0
      00FF1D32H   LINE      CODE     ---       #50
      00FF1D3AH   LINE      CODE     ---       #52
      00FF1D40H   LINE      CODE     ---       #53
      ---         BLOCKEND  ---      ---       LVL=0

      00FF1D49H   BLOCK     CODE     ---       LVL=0
      00FF1D49H   LINE      CODE     ---       #64
      00FF1D51H   LINE      CODE     ---       #66
      00FF1D57H   LINE      CODE     ---       #68
      ---         BLOCKEND  ---      ---       LVL=0

      00FF1D60H   BLOCK     CODE     ---       LVL=0
      00FF1D60H   LINE      CODE     ---       #71
      00FF1D68H   LINE      CODE     ---       #73
      00FF1D6EH   LINE      CODE     ---       #74
      ---         BLOCKEND  ---      ---       LVL=0

      ---         MODULE    ---      ---       LQ_GPIO_KEY
      00FF1DA1H   PUBLIC    CODE     ---       GPIO_KEY_Init
      000000D0H   SFRSYM    DATA     BYTE      PSW
      00000096H   SFRSYM    DATA     BYTE      USBADR
      000000E7H   SFRSYM    DATA     BYTE      IE2
      000000F8H.3 SFRSYM    DATA     BIT       P73
      000000F8H.2 SFRSYM    DATA     BIT       P72
      000000F8H.1 SFRSYM    DATA     BIT       P71
      000000F8H.0 SFRSYM    DATA     BIT       P70
      000000B0H.3 SFRSYM    DATA     BIT       P33
      00000088H   SFRSYM    DATA     BYTE      TCON
      000000B0H.2 SFRSYM    DATA     BIT       P32
      00000098H   SFRSYM    DATA     BYTE      SCON
      000000B8H   SFRSYM    DATA     BYTE      IP
      000000A8H   SFRSYM    DATA     BYTE      IE
      000000F8H   SFRSYM    DATA     BYTE      P7
      000000D2H   SFRSYM    DATA     BYTE      P7M1
      000000E8H   SFRSYM    DATA     BYTE      P6
      000000C8H   SFRSYM    DATA     BYTE      P5
      000000D3H   SFRSYM    DATA     BYTE      P7M0
      000000C0H   SFRSYM    DATA     BYTE      P4
      000000B0H   SFRSYM    DATA     BYTE      P3
      000000A0H   SFRSYM    DATA     BYTE      P2
      00000090H   SFRSYM    DATA     BYTE      P1
      00000080H   SFRSYM    DATA     BYTE      P0

      00FF1DA1H   BLOCK     CODE     ---       LVL=0
      00FF1DA1H   LINE      CODE     ---       #35
      00FF1DA1H   LINE      CODE     ---       #37
      00FF1DA4H   LINE      CODE     ---       #38
      00FF1DA8H   LINE      CODE     ---       #39
      00FF1DABH   LINE      CODE     ---       #40
      00FF1DAFH   LINE      CODE     ---       #41
      ---         BLOCKEND  ---      ---       LVL=0
L251 LINKER/LOCATER V4.66.93.0                                                        12/21/2021  22:07:38  PAGE 17


      WR6         REGSYM    ---      INT       KEYno
      R10         REGSYM    ---      BYTE      tm
      R15         REGSYM    ---      BYTE      k
      R11         REGSYM    ---      BYTE      k

      ---         MODULE    ---      ---       LQ_GPIO_LED
      00FF168EH   PUBLIC    CODE     ---       LED_Ctrl
      000000D0H   SFRSYM    DATA     BYTE      PSW
      00000096H   SFRSYM    DATA     BYTE      USBADR
      000000E7H   SFRSYM    DATA     BYTE      IE2
      000000E8H.2 SFRSYM    DATA     BIT       P62
      000000C0H.2 SFRSYM    DATA     BIT       P42
      00000088H   SFRSYM    DATA     BYTE      TCON
      00000098H   SFRSYM    DATA     BYTE      SCON
      000000A0H.1 SFRSYM    DATA     BIT       P21
      000000A0H.0 SFRSYM    DATA     BIT       P20
      000000B8H   SFRSYM    DATA     BYTE      IP
      000000A8H   SFRSYM    DATA     BYTE      IE
      000000F8H   SFRSYM    DATA     BYTE      P7
      000000E8H   SFRSYM    DATA     BYTE      P6
      000000C8H   SFRSYM    DATA     BYTE      P5
      000000C0H   SFRSYM    DATA     BYTE      P4
      000000B0H   SFRSYM    DATA     BYTE      P3
      000000A0H   SFRSYM    DATA     BYTE      P2
      00000090H   SFRSYM    DATA     BYTE      P1
      000000F5H   SFRSYM    DATA     BYTE      P2M1
      00000080H   SFRSYM    DATA     BYTE      P0
      000000F6H   SFRSYM    DATA     BYTE      P2M0

      00FF168EH   BLOCK     CODE     ---       LVL=0
      WR6         REGSYM    ---      INT       LEDno
      WR4         REGSYM    ---      INT       sta
      00FF168EH   LINE      CODE     ---       #51
      00FF168EH   LINE      CODE     ---       #53
      00FF16A8H   LINE      CODE     ---       #55
      00FF16A8H   LINE      CODE     ---       #56
      00FF16AFH   LINE      CODE     ---       #57
      00FF16B8H   LINE      CODE     ---       #58
      00FF16C9H   LINE      CODE     ---       #59
      00FF16CAH   LINE      CODE     ---       #61
      00FF16CAH   LINE      CODE     ---       #62
      00FF16D1H   LINE      CODE     ---       #63
      00FF16DAH   LINE      CODE     ---       #64
      00FF16EBH   LINE      CODE     ---       #65
      00FF16ECH   LINE      CODE     ---       #67
      00FF16ECH   LINE      CODE     ---       #68
      00FF16F3H   LINE      CODE     ---       #69
      00FF16FCH   LINE      CODE     ---       #70
      00FF170AH   LINE      CODE     ---       #71
      00FF170BH   LINE      CODE     ---       #73
      00FF170BH   LINE      CODE     ---       #74
      00FF1712H   LINE      CODE     ---       #75
      00FF171BH   LINE      CODE     ---       #76
      00FF1729H   LINE      CODE     ---       #77
      00FF172AH   LINE      CODE     ---       #78
      00FF172AH   LINE      CODE     ---       #79
      00FF172EH   LINE      CODE     ---       #81
      00FF1730H   LINE      CODE     ---       #82
      00FF1732H   LINE      CODE     ---       #83
      00FF1734H   LINE      CODE     ---       #84
      00FF1736H   LINE      CODE     ---       #85
      00FF1737H   LINE      CODE     ---       #86
      00FF173DH   LINE      CODE     ---       #88
      00FF173FH   LINE      CODE     ---       #89
      00FF1741H   LINE      CODE     ---       #90
L251 LINKER/LOCATER V4.66.93.0                                                        12/21/2021  22:07:38  PAGE 18


      00FF1743H   LINE      CODE     ---       #91
      00FF1745H   LINE      CODE     ---       #92
      00FF1746H   LINE      CODE     ---       #93
      00FF174CH   LINE      CODE     ---       #95
      00FF1755H   LINE      CODE     ---       #96
      00FF175EH   LINE      CODE     ---       #97
      00FF1767H   LINE      CODE     ---       #98
      00FF176FH   LINE      CODE     ---       #99
      00FF176FH   LINE      CODE     ---       #100
      00FF176FH   LINE      CODE     ---       #101
      00FF176FH   LINE      CODE     ---       #102
      00FF176FH   LINE      CODE     ---       #103
      ---         BLOCKEND  ---      ---       LVL=0
      WR6         REGSYM    ---      WORD      time
      000100FFH   SYMBOL    XDATA    INT       temp

      ---         MODULE    ---      ---       LQ_I2C
      000000D0H   SFRSYM    DATA     BYTE      PSW
      00000096H   SFRSYM    DATA     BYTE      USBADR
      000000E7H   SFRSYM    DATA     BYTE      IE2
      00000088H   SFRSYM    DATA     BYTE      TCON
      00000098H   SFRSYM    DATA     BYTE      SCON
      000000B8H   SFRSYM    DATA     BYTE      IP
      000000A8H   SFRSYM    DATA     BYTE      IE
      000000F8H   SFRSYM    DATA     BYTE      P7
      000000E8H   SFRSYM    DATA     BYTE      P6
      000000C8H   SFRSYM    DATA     BYTE      P5
      000000C0H   SFRSYM    DATA     BYTE      P4
      000000B0H   SFRSYM    DATA     BYTE      P3
      000000A0H   SFRSYM    DATA     BYTE      P2
      00000090H   SFRSYM    DATA     BYTE      P1
      00000080H   SFRSYM    DATA     BYTE      P0
      R11         REGSYM    ---      CHAR      dat
      REG=3       REGSYM    ---      ---       p
      REG=3       REGSYM    ---      ---       p

      ---         MODULE    ---      ---       LQ_OLED096
      00FF1DEAH   PUBLIC    HCONST   ---       F14x16
      00FF20DEH   PUBLIC    HCONST   ---       F14x16_Idx
      00FF2115H   PUBLIC    HCONST   ---       F6x8
      00FF233DH   PUBLIC    HCONST   ---       F8X16
      00FF292DH   PUBLIC    HCONST   ---       longqiu104x64
      00FF1820H   PUBLIC    CODE     ---       OLED_Init
      00FF1CA6H   PUBLIC    CODE     ---       OLED_Set_Pos
      00FF0FDDH   PUBLIC    CODE     ---       OLED_P14x16Str
      00FF1C5CH   PUBLIC    CODE     ---       OLED_WrCmd
      00FF0026H   PUBLIC    CODE     ---       OLED_CLS
      00FF1C81H   PUBLIC    CODE     ---       OLED_WrDat
      00FF1770H   PUBLIC    CODE     ---       OLED_P6x8Str
      000000D0H   SFRSYM    DATA     BYTE      PSW
      00000096H   SFRSYM    DATA     BYTE      USBADR
      000000E7H   SFRSYM    DATA     BYTE      IE2
      000000E8H.4 SFRSYM    DATA     BIT       P64
      000000E8H.3 SFRSYM    DATA     BIT       P63
      000000E8H.2 SFRSYM    DATA     BIT       P62
      000000E8H.1 SFRSYM    DATA     BIT       P61
      00000088H   SFRSYM    DATA     BYTE      TCON
      00000098H   SFRSYM    DATA     BYTE      SCON
      000000B8H   SFRSYM    DATA     BYTE      IP
      000000A8H   SFRSYM    DATA     BYTE      IE
      000000F8H   SFRSYM    DATA     BYTE      P7
      000000E8H   SFRSYM    DATA     BYTE      P6
      000000C8H   SFRSYM    DATA     BYTE      P5
      000000EEH   SFRSYM    DATA     BYTE      P6M1
      000000C0H   SFRSYM    DATA     BYTE      P4
L251 LINKER/LOCATER V4.66.93.0                                                        12/21/2021  22:07:38  PAGE 19


      000000EFH   SFRSYM    DATA     BYTE      P6M0
      000000B0H   SFRSYM    DATA     BYTE      P3
      000000A0H   SFRSYM    DATA     BYTE      P2
      00000090H   SFRSYM    DATA     BYTE      P1
      00000080H   SFRSYM    DATA     BYTE      P0

      00FF1820H   BLOCK     CODE     ---       LVL=0
      00FF1820H   LINE      CODE     ---       #66
      00FF1820H   LINE      CODE     ---       #68
      00FF1823H   LINE      CODE     ---       #69
      00FF1827H   LINE      CODE     ---       #70
      00FF182AH   LINE      CODE     ---       #71
      00FF182EH   LINE      CODE     ---       #78
      00FF1830H   LINE      CODE     ---       #80
      00FF1832H   LINE      CODE     ---       #81
      00FF1839H   LINE      CODE     ---       #82
      00FF183BH   LINE      CODE     ---       #84
      00FF1840H   LINE      CODE     ---       #85
      00FF1844H   LINE      CODE     ---       #86
      00FF1849H   LINE      CODE     ---       #87
      00FF184EH   LINE      CODE     ---       #88
      00FF1853H   LINE      CODE     ---       #89
      00FF1858H   LINE      CODE     ---       #90
      00FF185DH   LINE      CODE     ---       #91
      00FF1862H   LINE      CODE     ---       #92
      00FF1867H   LINE      CODE     ---       #93
      00FF186CH   LINE      CODE     ---       #94
      00FF1871H   LINE      CODE     ---       #95
      00FF1876H   LINE      CODE     ---       #96
      00FF187AH   LINE      CODE     ---       #97
      00FF187FH   LINE      CODE     ---       #98
      00FF1884H   LINE      CODE     ---       #99
      00FF1889H   LINE      CODE     ---       #100
      00FF188EH   LINE      CODE     ---       #101
      00FF1893H   LINE      CODE     ---       #102
      00FF1898H   LINE      CODE     ---       #103
      00FF189DH   LINE      CODE     ---       #104
      00FF18A2H   LINE      CODE     ---       #105
      00FF18A7H   LINE      CODE     ---       #106
      00FF18ACH   LINE      CODE     ---       #107
      00FF18B1H   LINE      CODE     ---       #108
      00FF18B6H   LINE      CODE     ---       #109
      00FF18BBH   LINE      CODE     ---       #110
      00FF18C0H   LINE      CODE     ---       #111
      00FF18C5H   LINE      CODE     ---       #112
      00FF18C8H   LINE      CODE     ---       #113
      ---         BLOCKEND  ---      ---       LVL=0
      WR6         REGSYM    ---      WORD      Del

      00FF1C81H   BLOCK     CODE     ---       LVL=0
      R7          REGSYM    ---      BYTE      dat
      00FF1C83H   BLOCK     CODE     NEAR LAB  LVL=1
      R6          REGSYM    ---      BYTE      i
      ---         BLOCKEND  ---      ---       LVL=1
      00FF1C81H   LINE      CODE     ---       #468
      00FF1C83H   LINE      CODE     ---       #469
      00FF1C83H   LINE      CODE     ---       #470
      00FF1C86H   LINE      CODE     ---       #472
      00FF1C88H   LINE      CODE     ---       #473
      00FF1C8AH   LINE      CODE     ---       #475
      00FF1C8CH   LINE      CODE     ---       #477
      00FF1C95H   LINE      CODE     ---       #478
      00FF1C97H   LINE      CODE     ---       #479
      00FF1C99H   LINE      CODE     ---       #482
      00FF1C9BH   LINE      CODE     ---       #483
L251 LINKER/LOCATER V4.66.93.0                                                        12/21/2021  22:07:38  PAGE 20


      00FF1C9DH   LINE      CODE     ---       #484
      00FF1CA5H   LINE      CODE     ---       #486
      ---         BLOCKEND  ---      ---       LVL=0

      00FF1C5CH   BLOCK     CODE     ---       LVL=0
      R7          REGSYM    ---      BYTE      cmd
      00FF1C5EH   BLOCK     CODE     NEAR LAB  LVL=1
      R6          REGSYM    ---      BYTE      i
      ---         BLOCKEND  ---      ---       LVL=1
      00FF1C5CH   LINE      CODE     ---       #501
      00FF1C5EH   LINE      CODE     ---       #502
      00FF1C5EH   LINE      CODE     ---       #503
      00FF1C61H   LINE      CODE     ---       #506
      00FF1C63H   LINE      CODE     ---       #507
      00FF1C65H   LINE      CODE     ---       #509
      00FF1C67H   LINE      CODE     ---       #511
      00FF1C70H   LINE      CODE     ---       #512
      00FF1C72H   LINE      CODE     ---       #513
      00FF1C74H   LINE      CODE     ---       #515
      00FF1C76H   LINE      CODE     ---       #516
      00FF1C78H   LINE      CODE     ---       #517
      00FF1C80H   LINE      CODE     ---       #519
      ---         BLOCKEND  ---      ---       LVL=0

      00FF1CA6H   BLOCK     CODE     ---       LVL=0
      R15         REGSYM    ---      BYTE      x
      R10         REGSYM    ---      BYTE      y
      00FF1CAAH   BLOCK     CODE     NEAR LAB  LVL=1
      R11         REGSYM    ---      BYTE      tm
      ---         BLOCKEND  ---      ---       LVL=1
      00FF1CA6H   LINE      CODE     ---       #535
      00FF1CAAH   LINE      CODE     ---       #536
      00FF1CAAH   LINE      CODE     ---       #538
      00FF1CB0H   LINE      CODE     ---       #539
      00FF1CB3H   LINE      CODE     ---       #540
      00FF1CBFH   LINE      CODE     ---       #541
      00FF1CC6H   LINE      CODE     ---       #542
      ---         BLOCKEND  ---      ---       LVL=0
      R15         REGSYM    ---      BYTE      y
      R13         REGSYM    ---      BYTE      x
      R7          REGSYM    ---      BYTE      tm

      00FF0026H   BLOCK     CODE     ---       LVL=0
      00FF002AH   BLOCK     CODE     NEAR LAB  LVL=1
      R15         REGSYM    ---      BYTE      y
      R13         REGSYM    ---      BYTE      x
      R7          REGSYM    ---      BYTE      tm
      ---         BLOCKEND  ---      ---       LVL=1
      00FF0026H   LINE      CODE     ---       #586
      00FF002AH   LINE      CODE     ---       #587
      00FF002AH   LINE      CODE     ---       #590
      00FF002CH   LINE      CODE     ---       #592
      00FF0032H   LINE      CODE     ---       #593
      00FF0037H   LINE      CODE     ---       #594
      00FF003CH   LINE      CODE     ---       #595
      00FF0041H   LINE      CODE     ---       #596
      00FF0043H   LINE      CODE     ---       #597
      00FF004EH   LINE      CODE     ---       #598
      00FF0055H   LINE      CODE     ---       #599
      ---         BLOCKEND  ---      ---       LVL=0
      R14         REGSYM    ---      BYTE      x
      R15         REGSYM    ---      BYTE      y
      R13         REGSYM    ---      BYTE      data1
      R15         REGSYM    ---      BYTE      x
      R14         REGSYM    ---      BYTE      y
L251 LINKER/LOCATER V4.66.93.0                                                        12/21/2021  22:07:38  PAGE 21


      R15         REGSYM    ---      BYTE      x1
      R12         REGSYM    ---      BYTE      y1
      R13         REGSYM    ---      BYTE      y2
      R14         REGSYM    ---      BYTE      gif

      00FF1770H   BLOCK     CODE     ---       LVL=0
      0001001EH   SYMBOL    XDATA    BYTE      x
      0001001FH   SYMBOL    XDATA    BYTE      y
      REG=3       REGSYM    ---      ---       ch
      00FF177EH   BLOCK     CODE     NEAR LAB  LVL=1
      00010020H   SYMBOL    XDATA    BYTE      c
      00010021H   SYMBOL    XDATA    BYTE      i
      00010022H   SYMBOL    XDATA    BYTE      j
      ---         BLOCKEND  ---      ---       LVL=1
      00FF1770H   LINE      CODE     ---       #725
      00FF177EH   LINE      CODE     ---       #726
      00FF177EH   LINE      CODE     ---       #727
      00FF178BH   LINE      CODE     ---       #728
      00FF178DH   LINE      CODE     ---       #730
      00FF17A4H   LINE      CODE     ---       #731
      00FF17B8H   LINE      CODE     ---       #732
      00FF17C5H   LINE      CODE     ---       #733
      00FF17CAH   LINE      CODE     ---       #734
      00FF17FEH   LINE      CODE     ---       #735
      00FF1805H   LINE      CODE     ---       #736
      00FF180BH   LINE      CODE     ---       #737
      00FF181DH   LINE      CODE     ---       #738
      ---         BLOCKEND  ---      ---       LVL=0
      REG=3       REGSYM    ---      ---       ch

      00FF0FDDH   BLOCK     CODE     ---       LVL=0
      00010000H   SYMBOL    XDATA    BYTE      x
      00010001H   SYMBOL    XDATA    BYTE      y
      REG=3       REGSYM    ---      ---       ch
      00FF0FEBH   BLOCK     CODE     NEAR LAB  LVL=1
      00010002H   SYMBOL    XDATA    BYTE      wm
      00010003H   SYMBOL    XDATA    BYTE      ii
      00010004H   SYMBOL    XDATA    WORD      adder
      00010006H   SYMBOL    XDATA    BYTE      tm
      ---         BLOCKEND  ---      ---       LVL=1
      00FF0FDDH   LINE      CODE     ---       #792
      00FF0FEBH   LINE      CODE     ---       #793
      00FF0FEBH   LINE      CODE     ---       #794
      00FF0FF4H   LINE      CODE     ---       #795
      00FF0FFEH   LINE      CODE     ---       #797
      00FF1001H   LINE      CODE     ---       #799
      00FF1006H   LINE      CODE     ---       #800
      00FF1010H   LINE      CODE     ---       #801
      00FF1012H   LINE      CODE     ---       #803
      00FF1038H   LINE      CODE     ---       #805
      00FF104BH   LINE      CODE     ---       #807
      00FF105BH   LINE      CODE     ---       #808
      00FF105DH   LINE      CODE     ---       #809
      00FF105DH   LINE      CODE     ---       #811
      00FF1064H   LINE      CODE     ---       #812
      00FF107CH   LINE      CODE     ---       #813
      00FF1090H   LINE      CODE     ---       #814
      00FF109DH   LINE      CODE     ---       #815
      00FF10ACH   LINE      CODE     ---       #817
      00FF10B9H   LINE      CODE     ---       #818
      00FF10BEH   LINE      CODE     ---       #820
      00FF10D4H   LINE      CODE     ---       #821
      00FF10DFH   LINE      CODE     ---       #822
      00FF10ECH   LINE      CODE     ---       #823
      00FF10FAH   LINE      CODE     ---       #824
L251 LINKER/LOCATER V4.66.93.0                                                        12/21/2021  22:07:38  PAGE 22


      00FF1101H   LINE      CODE     ---       #826
      00FF1106H   LINE      CODE     ---       #828
      00FF111CH   LINE      CODE     ---       #829
      00FF1127H   LINE      CODE     ---       #830
      00FF1134H   LINE      CODE     ---       #831
      00FF1136H   LINE      CODE     ---       #834
      00FF113CH   LINE      CODE     ---       #835
      00FF1149H   LINE      CODE     ---       #836
      00FF114EH   LINE      CODE     ---       #838
      00FF1152H   LINE      CODE     ---       #839
      00FF115FH   LINE      CODE     ---       #840
      00FF116DH   LINE      CODE     ---       #841
      00FF1174H   LINE      CODE     ---       #843
      00FF1179H   LINE      CODE     ---       #845
      00FF117DH   LINE      CODE     ---       #846
      00FF118AH   LINE      CODE     ---       #847
      00FF118AH   LINE      CODE     ---       #848
      00FF1191H   LINE      CODE     ---       #849
      00FF1198H   LINE      CODE     ---       #850
      00FF11AAH   LINE      CODE     ---       #851
      ---         BLOCKEND  ---      ---       LVL=0
      R3          REGSYM    ---      BYTE      y0
      R10         REGSYM    ---      BYTE      wide
      R2          REGSYM    ---      BYTE      high
      REG=3       REGSYM    ---      ---       bmp
      WR14        REGSYM    ---      WORD      ii
      R12         REGSYM    ---      BYTE      x
      R13         REGSYM    ---      BYTE      y
      REG=3       REGSYM    ---      ---       Pixle
      R15         REGSYM    ---      BYTE      cnt

      ---         MODULE    ---      ---       LQ_SPI
      000000BBH   SFRSYM    DATA     BYTE      SPDAT
      000000D0H   SFRSYM    DATA     BYTE      PSW
      000000A0H.3 SFRSYM    DATA     BIT       LQ_IMU_SI
      000000B9H   SFRSYM    DATA     BYTE      SPSTAT
      000000A0H.2 SFRSYM    DATA     BIT       LQ_IMU_CE
      00000096H   SFRSYM    DATA     BYTE      USBADR
      000000E7H   SFRSYM    DATA     BYTE      IE2
      00000088H   SFRSYM    DATA     BYTE      TCON
      00000098H   SFRSYM    DATA     BYTE      SCON
      000000A0H.5 SFRSYM    DATA     BIT       LQ_IMU_SCK
      000000B8H   SFRSYM    DATA     BYTE      IP
      000000A8H   SFRSYM    DATA     BYTE      IE
      0000009AH   SFRSYM    DATA     BYTE      P_SW1
      000000BAH   SFRSYM    DATA     BYTE      SPCTL
      000000F8H   SFRSYM    DATA     BYTE      P7
      000000E8H   SFRSYM    DATA     BYTE      P6
      000000C8H   SFRSYM    DATA     BYTE      P5
      000000C0H   SFRSYM    DATA     BYTE      P4
      000000B0H   SFRSYM    DATA     BYTE      P3
      000000A0H   SFRSYM    DATA     BYTE      P2
      00000090H   SFRSYM    DATA     BYTE      P1
      00000080H   SFRSYM    DATA     BYTE      P0
      R11         REGSYM    ---      BYTE      out
      R7          REGSYM    ---      BYTE      addr
      REG=3       REGSYM    ---      ---       lqbuf
      REG=3       REGSYM    ---      ---       lqbuf

      ---         MODULE    ---      ---       LQ_TIMER
      00FF0006H   PUBLIC    CODE     ---       timer2_int
      00FF1BC0H   PUBLIC    CODE     ---       timer3_int
      00FF1BF6H   PUBLIC    CODE     ---       timer4_int
      00FF0066H   PUBLIC    CODE     ---       Timer0_init
      00FF1CC9H   PUBLIC    CODE     ---       Timer1_init
L251 LINKER/LOCATER V4.66.93.0                                                        12/21/2021  22:07:38  PAGE 23


      000000D0H   SFRSYM    DATA     BYTE      PSW
      000000DBH   SFRSYM    DATA     BYTE      T4T3M
      00000088H.6 SFRSYM    DATA     BIT       TR1
      00000088H.4 SFRSYM    DATA     BIT       TR0
      000000CAH   SFRSYM    DATA     BYTE      T4L
      000000CCH   SFRSYM    DATA     BYTE      T3L
      000000CEH   SFRSYM    DATA     BYTE      T2L
      0000008BH   SFRSYM    DATA     BYTE      TL1
      0000008AH   SFRSYM    DATA     BYTE      TL0
      000000C9H   SFRSYM    DATA     BYTE      T4H
      000000CBH   SFRSYM    DATA     BYTE      T3H
      000000CDH   SFRSYM    DATA     BYTE      T2H
      0000008DH   SFRSYM    DATA     BYTE      TH1
      000000E7H.6 SFRSYM    DATA     BIT       ET4
      0000008CH   SFRSYM    DATA     BYTE      TH0
      000000E7H.5 SFRSYM    DATA     BIT       ET3
      000000E7H.2 SFRSYM    DATA     BIT       ET2
      000000A8H.3 SFRSYM    DATA     BIT       ET1
      000000A8H.1 SFRSYM    DATA     BIT       ET0
      00000096H   SFRSYM    DATA     BYTE      USBADR
      00000093H   SFRSYM    DATA     BYTE      AUXR
      000000E7H   SFRSYM    DATA     BYTE      IE2
      00000088H   SFRSYM    DATA     BYTE      TCON
      00000089H   SFRSYM    DATA     BYTE      TMOD
      00000098H   SFRSYM    DATA     BYTE      SCON
      000000B8H   SFRSYM    DATA     BYTE      IP
      00000095H   SFRSYM    DATA     BYTE      INTCLKO
      000000A8H   SFRSYM    DATA     BYTE      IE
      000000F8H   SFRSYM    DATA     BYTE      P7
      000000E8H   SFRSYM    DATA     BYTE      P6
      000000C8H   SFRSYM    DATA     BYTE      P5
      000000C0H   SFRSYM    DATA     BYTE      P4
      000000B0H   SFRSYM    DATA     BYTE      P3
      000000A0H   SFRSYM    DATA     BYTE      P2
      00000090H   SFRSYM    DATA     BYTE      P1
      00000080H   SFRSYM    DATA     BYTE      P0

      00FF0006H   BLOCK     CODE     ---       LVL=0
      00FF0006H   LINE      CODE     ---       #70
      00FF0006H   LINE      CODE     ---       #73
      ---         BLOCKEND  ---      ---       LVL=0

      00FF1BC0H   BLOCK     CODE     ---       LVL=0
      00FF1BC0H   LINE      CODE     ---       #75
      00FF1BD6H   LINE      CODE     ---       #77
      00FF1BDFH   LINE      CODE     ---       #78
      ---         BLOCKEND  ---      ---       LVL=0

      00FF1BF6H   BLOCK     CODE     ---       LVL=0
      00FF1BF6H   LINE      CODE     ---       #79
      00FF1C0CH   LINE      CODE     ---       #81
      00FF1C15H   LINE      CODE     ---       #82
      ---         BLOCKEND  ---      ---       LVL=0

      00FF0066H   BLOCK     CODE     ---       LVL=0
      00FF0066H   LINE      CODE     ---       #91
      00FF0066H   LINE      CODE     ---       #93
      00FF0068H   LINE      CODE     ---       #99
      00FF006AH   LINE      CODE     ---       #101
      00FF006DH   LINE      CODE     ---       #102
      00FF0071H   LINE      CODE     ---       #104
      00FF0074H   LINE      CODE     ---       #106
      00FF0077H   LINE      CODE     ---       #113
      00FF007AH   LINE      CODE     ---       #114
      00FF007DH   LINE      CODE     ---       #115
L251 LINKER/LOCATER V4.66.93.0                                                        12/21/2021  22:07:38  PAGE 24


      00FF0080H   LINE      CODE     ---       #118
      00FF0082H   LINE      CODE     ---       #123
      ---         BLOCKEND  ---      ---       LVL=0

      00FF1CC9H   BLOCK     CODE     ---       LVL=0
      00FF1CC9H   LINE      CODE     ---       #132
      00FF1CC9H   LINE      CODE     ---       #134
      00FF1CCBH   LINE      CODE     ---       #140
      00FF1CCDH   LINE      CODE     ---       #142
      00FF1CD0H   LINE      CODE     ---       #143
      00FF1CD4H   LINE      CODE     ---       #145
      00FF1CD7H   LINE      CODE     ---       #147
      00FF1CDAH   LINE      CODE     ---       #154
      00FF1CDDH   LINE      CODE     ---       #155
      00FF1CE0H   LINE      CODE     ---       #156
      00FF1CE3H   LINE      CODE     ---       #159
      00FF1CE5H   LINE      CODE     ---       #164
      ---         BLOCKEND  ---      ---       LVL=0

      ---         MODULE    ---      ---       LQ_ICM20689
      000100FBH   PUBLIC    XDATA    FLOAT     temp_p
      000000D0H   SFRSYM    DATA     BYTE      PSW
      00000096H   SFRSYM    DATA     BYTE      USBADR
      000000E7H   SFRSYM    DATA     BYTE      IE2
      000000A0H.5 SFRSYM    DATA     BIT       P25
      000000A0H.4 SFRSYM    DATA     BIT       P24
      00000088H   SFRSYM    DATA     BYTE      TCON
      000000A0H.3 SFRSYM    DATA     BIT       P23
      00000098H   SFRSYM    DATA     BYTE      SCON
      000000A0H.2 SFRSYM    DATA     BIT       P22
      000000B8H   SFRSYM    DATA     BYTE      IP
      000000A8H   SFRSYM    DATA     BYTE      IE
      000000F8H   SFRSYM    DATA     BYTE      P7
      000000E8H   SFRSYM    DATA     BYTE      P6
      000000C8H   SFRSYM    DATA     BYTE      P5
      000000C0H   SFRSYM    DATA     BYTE      P4
      000000B0H   SFRSYM    DATA     BYTE      P3
      000000A0H   SFRSYM    DATA     BYTE      P2
      00000090H   SFRSYM    DATA     BYTE      P1
      000000F5H   SFRSYM    DATA     BYTE      P2M1
      00000080H   SFRSYM    DATA     BYTE      P0
      000000F6H   SFRSYM    DATA     BYTE      P2M0
      R15         REGSYM    ---      BYTE      res
      REG=7       REGSYM    ---      ---       lqbuff
      WR8         REGSYM    ---      WORD      len
      R10         REGSYM    ---      BYTE      i
      R11         REGSYM    ---      BYTE      reg
      R10         REGSYM    ---      BYTE      len
      REG=7       REGSYM    ---      ---       buf
      REG=3       REGSYM    ---      ---       gy
      REG=3       REGSYM    ---      ---       ay
      REG=3       REGSYM    ---      ---       ay
      R11         REGSYM    ---      BYTE      reg
      R10         REGSYM    ---      BYTE      value
      R7          REGSYM    ---      BYTE      reg
      R10         REGSYM    ---      BYTE      fsr
      R10         REGSYM    ---      BYTE      fsr
      WR6         REGSYM    ---      WORD      lpf
      R10         REGSYM    ---      BYTE      dat
      WR14        REGSYM    ---      WORD      rate
      R7          REGSYM    ---      BYTE      dat
      WR4         REGSYM    ---      WORD      raw
      DR4         REGSYM    ---      FLOAT     temp

      ---         MODULE    ---      ---       LQ_MotorServo
L251 LINKER/LOCATER V4.66.93.0                                                        12/21/2021  22:07:38  PAGE 25


      00FF18CEH   PUBLIC    CODE     ---       ServoInit
      00FF1CE6H   PUBLIC    CODE     ---       ServoCtrl
      00FF1594H   PUBLIC    CODE     ---       MotorInit
      00FF1962H   PUBLIC    CODE     ---       MotorCtrl
      000100EEH   PUBLIC    XDATA    WORD      PWM1_Duty
      000100F0H   PUBLIC    XDATA    WORD      PWM2_Duty
      000100F2H   PUBLIC    XDATA    WORD      PWM3_Duty
      000100F4H   PUBLIC    XDATA    WORD      PWM4_Duty
      000000D0H   SFRSYM    DATA     BYTE      PSW
      00000096H   SFRSYM    DATA     BYTE      USBADR
      000000E7H   SFRSYM    DATA     BYTE      IE2
      000000F8H.7 SFRSYM    DATA     BIT       P77
      000000F8H.5 SFRSYM    DATA     BIT       P75
      00000088H   SFRSYM    DATA     BYTE      TCON
      00000098H   SFRSYM    DATA     BYTE      SCON
      000000B8H   SFRSYM    DATA     BYTE      IP
      000000A8H   SFRSYM    DATA     BYTE      IE
      0000009BH   SFRSYM    DATA     BYTE      P_SW2
      000000F8H   SFRSYM    DATA     BYTE      P7
      000000D2H   SFRSYM    DATA     BYTE      P7M1
      000000E8H   SFRSYM    DATA     BYTE      P6
      000000C8H   SFRSYM    DATA     BYTE      P5
      000000D3H   SFRSYM    DATA     BYTE      P7M0
      000000C0H   SFRSYM    DATA     BYTE      P4
      000000B0H   SFRSYM    DATA     BYTE      P3
      000000A0H   SFRSYM    DATA     BYTE      P2
      00000090H   SFRSYM    DATA     BYTE      P1
      00000080H   SFRSYM    DATA     BYTE      P0
      00FF2E3CH   SYMBOL    HCONST   ---       ?tpl?0001

      00FF1594H   BLOCK     CODE     ---       LVL=0
      WR30        REGSYM    ---      WORD      freq
      00FF1594H   LINE      CODE     ---       #137
      00FF1598H   LINE      CODE     ---       #139
      00FF159BH   LINE      CODE     ---       #140
      00FF15A8H   LINE      CODE     ---       #141
      00FF15B4H   LINE      CODE     ---       #142
      00FF15BBH   LINE      CODE     ---       #143
      00FF15C9H   LINE      CODE     ---       #144
      00FF15D0H   LINE      CODE     ---       #145
      00FF15D7H   LINE      CODE     ---       #146
      00FF15DEH   LINE      CODE     ---       #147
      00FF15E3H   LINE      CODE     ---       #148
      00FF15E6H   LINE      CODE     ---       #150
      00FF1600H   LINE      CODE     ---       #151
      00FF160DH   LINE      CODE     ---       #153
      00FF1616H   LINE      CODE     ---       #154
      00FF161FH   LINE      CODE     ---       #155
      00FF1628H   LINE      CODE     ---       #156
      00FF1631H   LINE      CODE     ---       #158
      00FF1639H   LINE      CODE     ---       #159
      00FF1641H   LINE      CODE     ---       #161
      00FF1649H   LINE      CODE     ---       #163
      00FF1651H   LINE      CODE     ---       #164
      00FF1659H   LINE      CODE     ---       #166
      00FF1661H   LINE      CODE     ---       #168
      00FF166AH   LINE      CODE     ---       #169
      00FF1676H   LINE      CODE     ---       #171
      00FF1679H   LINE      CODE     ---       #172
      00FF167CH   LINE      CODE     ---       #173
      00FF1688H   LINE      CODE     ---       #175
      00FF168BH   LINE      CODE     ---       #176
      ---         BLOCKEND  ---      ---       LVL=0

      00FF1962H   BLOCK     CODE     ---       LVL=0
L251 LINKER/LOCATER V4.66.93.0                                                        12/21/2021  22:07:38  PAGE 26


      WR10        REGSYM    ---      INT       motor1
      WR0         REGSYM    ---      INT       motor2
      00FF1962H   LINE      CODE     ---       #232
      00FF1966H   LINE      CODE     ---       #234
      00FF196CH   LINE      CODE     ---       #236
      00FF1972H   LINE      CODE     ---       #237
      00FF1975H   LINE      CODE     ---       #238
      00FF1982H   LINE      CODE     ---       #239
      00FF1989H   LINE      CODE     ---       #240
      00FF198BH   LINE      CODE     ---       #242
      00FF198BH   LINE      CODE     ---       #243
      00FF198DH   LINE      CODE     ---       #246
      00FF1990H   LINE      CODE     ---       #247
      00FF199DH   LINE      CODE     ---       #248
      00FF19A4H   LINE      CODE     ---       #249
      00FF19A6H   LINE      CODE     ---       #250
      00FF19A9H   LINE      CODE     ---       #251
      00FF19A9H   LINE      CODE     ---       #253
      00FF19AFH   LINE      CODE     ---       #255
      00FF19B5H   LINE      CODE     ---       #256
      00FF19B8H   LINE      CODE     ---       #257
      00FF19C5H   LINE      CODE     ---       #258
      00FF19CCH   LINE      CODE     ---       #259
      00FF19CEH   LINE      CODE     ---       #260
      00FF19CEH   LINE      CODE     ---       #261
      00FF19D0H   LINE      CODE     ---       #264
      00FF19D3H   LINE      CODE     ---       #265
      00FF19E0H   LINE      CODE     ---       #266
      00FF19E7H   LINE      CODE     ---       #267
      00FF19E9H   LINE      CODE     ---       #268
      00FF19ECH   LINE      CODE     ---       #269
      00FF19ECH   LINE      CODE     ---       #270
      ---         BLOCKEND  ---      ---       LVL=0
      WR14        REGSYM    ---      INT       duty

      00FF18CEH   BLOCK     CODE     ---       LVL=0
      WR30        REGSYM    ---      WORD      freq
      00FF18CEH   LINE      CODE     ---       #337
      00FF18D0H   LINE      CODE     ---       #339
      00FF18D3H   LINE      CODE     ---       #341
      00FF18E0H   LINE      CODE     ---       #342
      00FF18E8H   LINE      CODE     ---       #343
      00FF18F5H   LINE      CODE     ---       #344
      00FF18FAH   LINE      CODE     ---       #346
      00FF1914H   LINE      CODE     ---       #347
      00FF1921H   LINE      CODE     ---       #349
      00FF192AH   LINE      CODE     ---       #350
      00FF1933H   LINE      CODE     ---       #352
      00FF193FH   LINE      CODE     ---       #353
      00FF1949H   LINE      CODE     ---       #355
      00FF1952H   LINE      CODE     ---       #356
      00FF195EH   LINE      CODE     ---       #357
      00FF1961H   LINE      CODE     ---       #358
      ---         BLOCKEND  ---      ---       LVL=0

      00FF1CE6H   BLOCK     CODE     ---       LVL=0
      WR0         REGSYM    ---      WORD      duty
      00FF1CE6H   LINE      CODE     ---       #370
      00FF1CE8H   LINE      CODE     ---       #378
      00FF1CEBH   LINE      CODE     ---       #379
      00FF1CF6H   LINE      CODE     ---       #380
      00FF1CFDH   LINE      CODE     ---       #381
      00FF1D00H   LINE      CODE     ---       #382
      ---         BLOCKEND  ---      ---       LVL=0
      WR14        REGSYM    ---      WORD      duty
L251 LINKER/LOCATER V4.66.93.0                                                        12/21/2021  22:07:38  PAGE 27



      ---         MODULE    ---      ---       LQ_Encoder
      00FF1D8EH   PUBLIC    CODE     ---       Timer34EncInit
      00FF1A51H   PUBLIC    CODE     ---       Read_Encoder
      000000D0H   SFRSYM    DATA     BYTE      PSW
      000000DBH   SFRSYM    DATA     BYTE      T4T3M
      000000CAH   SFRSYM    DATA     BYTE      T4L
      000000CCH   SFRSYM    DATA     BYTE      T3L
      000000C9H   SFRSYM    DATA     BYTE      T4H
      000000CBH   SFRSYM    DATA     BYTE      T3H
      00000096H   SFRSYM    DATA     BYTE      USBADR
      000000E7H   SFRSYM    DATA     BYTE      IE2
      00000080H.7 SFRSYM    DATA     BIT       P07
      00000080H.5 SFRSYM    DATA     BIT       P05
      00000088H   SFRSYM    DATA     BYTE      TCON
      00000098H   SFRSYM    DATA     BYTE      SCON
      000000B8H   SFRSYM    DATA     BYTE      IP
      000000A8H   SFRSYM    DATA     BYTE      IE
      000000F8H   SFRSYM    DATA     BYTE      P7
      000000E8H   SFRSYM    DATA     BYTE      P6
      000000C8H   SFRSYM    DATA     BYTE      P5
      000000C0H   SFRSYM    DATA     BYTE      P4
      000000B0H   SFRSYM    DATA     BYTE      P3
      000000A0H   SFRSYM    DATA     BYTE      P2
      00000090H   SFRSYM    DATA     BYTE      P1
      00000080H   SFRSYM    DATA     BYTE      P0

      00FF1A51H   BLOCK     CODE     ---       LVL=0
      R5          REGSYM    ---      BYTE      encno
      00FF1A53H   BLOCK     CODE     NEAR LAB  LVL=1
      WR6         REGSYM    ---      INT       tm
      ---         BLOCKEND  ---      ---       LVL=1
      00FF1A51H   LINE      CODE     ---       #36
      00FF1A53H   LINE      CODE     ---       #37
      00FF1A53H   LINE      CODE     ---       #38
      00FF1A55H   LINE      CODE     ---       #39
      00FF1A59H   LINE      CODE     ---       #41
      00FF1A5CH   LINE      CODE     ---       #42
      00FF1A64H   LINE      CODE     ---       #44
      00FF1A74H   LINE      CODE     ---       #46
      00FF1A77H   LINE      CODE     ---       #47
      00FF1A7AH   LINE      CODE     ---       #48
      00FF1A7DH   LINE      CODE     ---       #49
      00FF1A80H   LINE      CODE     ---       #50
      00FF1A81H   LINE      CODE     ---       #51
      00FF1A85H   LINE      CODE     ---       #53
      00FF1A88H   LINE      CODE     ---       #54
      00FF1A90H   LINE      CODE     ---       #56
      00FF1AA0H   LINE      CODE     ---       #58
      00FF1AA3H   LINE      CODE     ---       #59
      00FF1AA6H   LINE      CODE     ---       #60
      00FF1AA9H   LINE      CODE     ---       #61
      00FF1AACH   LINE      CODE     ---       #62
      00FF1AACH   LINE      CODE     ---       #63
      00FF1AACH   LINE      CODE     ---       #64
      ---         BLOCKEND  ---      ---       LVL=0

      00FF1D8EH   BLOCK     CODE     ---       LVL=0
      00FF1D8EH   LINE      CODE     ---       #74
      00FF1D8EH   LINE      CODE     ---       #93
      00FF1D91H   LINE      CODE     ---       #94
      00FF1D94H   LINE      CODE     ---       #95
      00FF1D97H   LINE      CODE     ---       #97
      00FF1D9AH   LINE      CODE     ---       #98
      00FF1D9DH   LINE      CODE     ---       #99
L251 LINKER/LOCATER V4.66.93.0                                                        12/21/2021  22:07:38  PAGE 28


      00FF1DA0H   LINE      CODE     ---       #100
      ---         BLOCKEND  ---      ---       LVL=0
      WR14        REGSYM    ---      INT       duty
      WR12        REGSYM    ---      INT       enc2

      ---         MODULE    ---      ---       LQ_UART
      00FF1DB0H   PUBLIC    CODE     ---       UART1_int
      00FF1B87H   PUBLIC    CODE     ---       UART4_int
      00010046H   PUBLIC    XDATA    BYTE      Uart4_Receive
      000000D0H   SFRSYM    DATA     BYTE      PSW
      000000BCH   SFRSYM    DATA     BYTE      S4CON
      00000098H.4 SFRSYM    DATA     BIT       REN
      000000BDH   SFRSYM    DATA     BYTE      S4BUF
      000000DBH   SFRSYM    DATA     BYTE      T4T3M
      00000088H.6 SFRSYM    DATA     BIT       TR1
      000000CAH   SFRSYM    DATA     BYTE      T4L
      000000CEH   SFRSYM    DATA     BYTE      T2L
      0000008BH   SFRSYM    DATA     BYTE      TL1
      000000C9H   SFRSYM    DATA     BYTE      T4H
      000000CDH   SFRSYM    DATA     BYTE      T2H
      0000008DH   SFRSYM    DATA     BYTE      TH1
      000000A8H.3 SFRSYM    DATA     BIT       ET1
      00000096H   SFRSYM    DATA     BYTE      USBADR
      00000093H   SFRSYM    DATA     BYTE      AUXR
      000000E7H   SFRSYM    DATA     BYTE      IE2
      00000088H   SFRSYM    DATA     BYTE      TCON
      00000089H   SFRSYM    DATA     BYTE      TMOD
      00000098H   SFRSYM    DATA     BYTE      SCON
      00000099H   SFRSYM    DATA     BYTE      SBUF
      00000098H.1 SFRSYM    DATA     BIT       TI
      00000098H.0 SFRSYM    DATA     BIT       RI
      000000B8H   SFRSYM    DATA     BYTE      IP
      000000A8H.4 SFRSYM    DATA     BIT       ES
      00000095H   SFRSYM    DATA     BYTE      INTCLKO
      000000A8H   SFRSYM    DATA     BYTE      IE
      0000009BH   SFRSYM    DATA     BYTE      P_SW2
      0000009AH   SFRSYM    DATA     BYTE      P_SW1
      000000F8H   SFRSYM    DATA     BYTE      P7
      000000E8H   SFRSYM    DATA     BYTE      P6
      000000C8H   SFRSYM    DATA     BYTE      P5
      000000C0H   SFRSYM    DATA     BYTE      P4
      000000B0H   SFRSYM    DATA     BYTE      P3
      000000A0H   SFRSYM    DATA     BYTE      P2
      00000090H   SFRSYM    DATA     BYTE      P1
      00000080H   SFRSYM    DATA     BYTE      P0

      00FF1DB0H   BLOCK     CODE     ---       LVL=0
      00FF1DB0H   LINE      CODE     ---       #40
      00FF1DB2H   LINE      CODE     ---       #42
      00FF1DB5H   LINE      CODE     ---       #44
      00FF1DB7H   LINE      CODE     ---       #45
      00FF1DB7H   LINE      CODE     ---       #47
      00FF1DBAH   LINE      CODE     ---       #49
      00FF1DBCH   LINE      CODE     ---       #50
      ---         BLOCKEND  ---      ---       LVL=0

      00FF1B87H   BLOCK     CODE     ---       LVL=0
      00FF1B91H   BLOCK     CODE     NEAR LAB  LVL=1
      00010047H   SYMBOL    XDATA    INT       uart_receive
      ---         BLOCKEND  ---      ---       LVL=1
      00FF1B87H   LINE      CODE     ---       #65
      00FF1B91H   LINE      CODE     ---       #66
      00FF1B91H   LINE      CODE     ---       #71
      00FF1B96H   LINE      CODE     ---       #73
      00FF1B99H   LINE      CODE     ---       #75
L251 LINKER/LOCATER V4.66.93.0                                                        12/21/2021  22:07:38  PAGE 29


      00FF1BA3H   LINE      CODE     ---       #76
      00FF1BADH   LINE      CODE     ---       #79
      00FF1BADH   LINE      CODE     ---       #81
      00FF1BB2H   LINE      CODE     ---       #83
      00FF1BB5H   LINE      CODE     ---       #84
      ---         BLOCKEND  ---      ---       LVL=0
      DR4         REGSYM    ---      DWORD     dat
      WR6         REGSYM    ---      WORD      tmr
      WR6         REGSYM    ---      WORD      tmr
      R11         REGSYM    ---      CHAR      ch
      R11         REGSYM    ---      CHAR      ch
      REG=3       REGSYM    ---      ---       st
      REG=3       REGSYM    ---      ---       st
      REG=3       REGSYM    ---      ---       buff

      ---         MODULE    ---      ---       ANO_DT
      000100BCH   PUBLIC    XDATA    ---       data_to_send
      000000D0H   SFRSYM    DATA     BYTE      PSW
      00000096H   SFRSYM    DATA     BYTE      USBADR
      000000E7H   SFRSYM    DATA     BYTE      IE2
      00000088H   SFRSYM    DATA     BYTE      TCON
      00000098H   SFRSYM    DATA     BYTE      SCON
      000000B8H   SFRSYM    DATA     BYTE      IP
      000000A8H   SFRSYM    DATA     BYTE      IE
      000000F8H   SFRSYM    DATA     BYTE      P7
      000000E8H   SFRSYM    DATA     BYTE      P6
      000000C8H   SFRSYM    DATA     BYTE      P5
      000000C0H   SFRSYM    DATA     BYTE      P4
      000000B0H   SFRSYM    DATA     BYTE      P3
      000000A0H   SFRSYM    DATA     BYTE      P2
      00000090H   SFRSYM    DATA     BYTE      P1
      00000080H   SFRSYM    DATA     BYTE      P0
      REG=2       REGSYM    ---      ---       dataToSend
      WR6         REGSYM    ---      WORD      length
      R10         REGSYM    ---      BYTE      sum
      R7          REGSYM    ---      BYTE      i

      ---         MODULE    ---      ---       LQ_SOFTI2C
      00FF1D77H   PUBLIC    CODE     ---       delayms
      000000D0H   SFRSYM    DATA     BYTE      PSW
      00000096H   SFRSYM    DATA     BYTE      USBADR
      000000E7H   SFRSYM    DATA     BYTE      IE2
      000000A0H.5 SFRSYM    DATA     BIT       P25
      000000A0H.4 SFRSYM    DATA     BIT       P24
      00000088H   SFRSYM    DATA     BYTE      TCON
      00000098H   SFRSYM    DATA     BYTE      SCON
      000000B8H   SFRSYM    DATA     BYTE      IP
      000000A8H   SFRSYM    DATA     BYTE      IE
      000000F8H   SFRSYM    DATA     BYTE      P7
      000000E8H   SFRSYM    DATA     BYTE      P6
      000000C8H   SFRSYM    DATA     BYTE      P5
      000000C0H   SFRSYM    DATA     BYTE      P4
      000000B0H   SFRSYM    DATA     BYTE      P3
      000000A0H   SFRSYM    DATA     BYTE      P2
      00000090H   SFRSYM    DATA     BYTE      P1
      000000F5H   SFRSYM    DATA     BYTE      P2M1
      00000080H   SFRSYM    DATA     BYTE      P0
      000000F6H   SFRSYM    DATA     BYTE      P2M0

      00FF1D77H   BLOCK     CODE     ---       LVL=0
      WR4         REGSYM    ---      WORD      ms
      00FF1D79H   BLOCK     CODE     NEAR LAB  LVL=1
      WR6         REGSYM    ---      WORD      i
      ---         BLOCKEND  ---      ---       LVL=1
      00FF1D77H   LINE      CODE     ---       #36
L251 LINKER/LOCATER V4.66.93.0                                                        12/21/2021  22:07:38  PAGE 30


      00FF1D79H   LINE      CODE     ---       #37
      00FF1D79H   LINE      CODE     ---       #39
      00FF1D79H   LINE      CODE     ---       #40
      00FF1D7DH   LINE      CODE     ---       #41
      00FF1D85H   LINE      CODE     ---       #42
      00FF1D8DH   LINE      CODE     ---       #43
      ---         BLOCKEND  ---      ---       LVL=0
      WR4         REGSYM    ---      WORD      us
      WR6         REGSYM    ---      WORD      i
      R15         REGSYM    ---      BYTE      ucErrTime
      R15         REGSYM    ---      BYTE      txd
      R14         REGSYM    ---      BYTE      t
      WR4         REGSYM    ---      WORD      len
      REG=3       REGSYM    ---      ---       dat
      WR4         REGSYM    ---      WORD      len
      REG=3       REGSYM    ---      ---       buf
      R15         REGSYM    ---      BYTE      ack
      R13         REGSYM    ---      BYTE      i
      R14         REGSYM    ---      BYTE      receive
      R15         REGSYM    ---      BYTE      I2C_Addr
      R14         REGSYM    ---      BYTE      addr
      R15         REGSYM    ---      BYTE      res
      REG=3       REGSYM    ---      ---       dat
      REG=3       REGSYM    ---      ---       dat
      R11         REGSYM    ---      BYTE      dev
      R7          REGSYM    ---      BYTE      reg
      REG=3       REGSYM    ---      ---       dat
      R11         REGSYM    ---      BYTE      dev
      R10         REGSYM    ---      BYTE      reg
      R12         REGSYM    ---      BYTE      reg
      R14         REGSYM    ---      BYTE      bitStart
      R13         REGSYM    ---      BYTE      length
      R15         REGSYM    ---      BYTE      dat
      R10         REGSYM    ---      BYTE      mask
      R13         REGSYM    ---      BYTE      dev
      R14         REGSYM    ---      BYTE      reg
      R15         REGSYM    ---      BYTE      bitNum
      R12         REGSYM    ---      BYTE      dat

      ---         MODULE    ---      ---       LQ_dianci
      00FF19EDH   PUBLIC    CODE     ---       timer0_int
      00FF11ADH   PUBLIC    CODE     ---       InductorNormal
      00FF147FH   PUBLIC    CODE     ---       OLED_show
      00FF133DH   PUBLIC    CODE     ---       Discern
      00FF0B6CH   PUBLIC    CODE     ---       Control
      00010082H   PUBLIC    XDATA    INT       TempAngle
      00010084H   PUBLIC    XDATA    INT       leftV
      00010086H   PUBLIC    XDATA    INT       Round
      00010088H   PUBLIC    XDATA    INT       Fork
      0001008AH   PUBLIC    XDATA    INT       Round_In
      0001008CH   PUBLIC    XDATA    INT       Round_Out
      0001008EH   PUBLIC    XDATA    INT       count
      00010090H   PUBLIC    XDATA    INT       time
      00010092H   PUBLIC    XDATA    INT       Last_ServoDuty
      00010094H   PUBLIC    XDATA    INT       ServoDuty
      00010096H   PUBLIC    XDATA    INT       Kp
      00010098H   PUBLIC    XDATA    INT       Fork_L
      0001009AH   PUBLIC    XDATA    INT       ECPULSE1
      0001009CH   PUBLIC    XDATA    INT       Fork_R
      0001009EH   PUBLIC    XDATA    INT       ECPULSE2
      000100A0H   PUBLIC    XDATA    INT       Rounding
      000100A2H   PUBLIC    XDATA    INT       Detection_L
      000100A4H   PUBLIC    XDATA    INT       Forking
      000100A6H   PUBLIC    XDATA    INT       MtTargetDuty
      000100A8H   PUBLIC    XDATA    INT       Detection_R
L251 LINKER/LOCATER V4.66.93.0                                                        12/21/2021  22:07:38  PAGE 31


      000100AAH   PUBLIC    XDATA    INT       M_error
      000100ACH   PUBLIC    XDATA    INT       Last_Target
      000100AEH   PUBLIC    XDATA    INT       Forkout
      000100B0H   PUBLIC    XDATA    INT       MotorDuty1
      000100B2H   PUBLIC    XDATA    INT       MotorDuty2
      000100B4H   PUBLIC    XDATA    INT       rightP
      000100B6H   PUBLIC    XDATA    INT       rightV
      000100B8H   PUBLIC    XDATA    INT       RAllPulse
      000100BAH   PUBLIC    XDATA    INT       leftP
      00000008H   PUBLIC    DATA     ---       diangan
      000000D0H   SFRSYM    DATA     BYTE      PSW
      00000096H   SFRSYM    DATA     BYTE      USBADR
      000000E7H   SFRSYM    DATA     BYTE      IE2
      00000088H   SFRSYM    DATA     BYTE      TCON
      00000098H   SFRSYM    DATA     BYTE      SCON
      000000B8H   SFRSYM    DATA     BYTE      IP
      000000A8H   SFRSYM    DATA     BYTE      IE
      000000F8H   SFRSYM    DATA     BYTE      P7
      000000E8H   SFRSYM    DATA     BYTE      P6
      000000C8H   SFRSYM    DATA     BYTE      P5
      000000C0H   SFRSYM    DATA     BYTE      P4
      000000B0H   SFRSYM    DATA     BYTE      P3
      000000A0H   SFRSYM    DATA     BYTE      P2
      00000090H   SFRSYM    DATA     BYTE      P1
      00000080H   SFRSYM    DATA     BYTE      P0

      00FF19EDH   BLOCK     CODE     ---       LVL=0
      00FF19EDH   LINE      CODE     ---       #40
      00FF1A03H   LINE      CODE     ---       #42
      00FF1A0EH   LINE      CODE     ---       #43
      00FF1A19H   LINE      CODE     ---       #44
      00FF1A1CH   LINE      CODE     ---       #45
      00FF1A2BH   LINE      CODE     ---       #46
      00FF1A3AH   LINE      CODE     ---       #47
      ---         BLOCKEND  ---      ---       LVL=0

      00FF11ADH   BLOCK     CODE     ---       LVL=0
      00FF11ADH   LINE      CODE     ---       #57
      00FF11ADH   LINE      CODE     ---       #59
      00FF11B5H   LINE      CODE     ---       #60
      00FF11BDH   LINE      CODE     ---       #61
      00FF11C5H   LINE      CODE     ---       #62
      00FF11CFH   LINE      CODE     ---       #64
      00FF11FEH   LINE      CODE     ---       #65
      00FF121DH   LINE      CODE     ---       #66
      00FF123CH   LINE      CODE     ---       #67
      00FF125AH   LINE      CODE     ---       #69
      00FF1270H   LINE      CODE     ---       #70
      00FF128EH   LINE      CODE     ---       #71
      00FF12AAH   LINE      CODE     ---       #72
      00FF12C8H   LINE      CODE     ---       #73
      00FF12E4H   LINE      CODE     ---       #74
      00FF1302H   LINE      CODE     ---       #75
      00FF131EH   LINE      CODE     ---       #76
      00FF133CH   LINE      CODE     ---       #77
      ---         BLOCKEND  ---      ---       LVL=0

      00FF0B6CH   BLOCK     CODE     ---       LVL=0
      00FF0B6CH   LINE      CODE     ---       #90
      00FF0B6EH   LINE      CODE     ---       #92
      00FF0B71H   LINE      CODE     ---       #94
      00FF0B7DH   LINE      CODE     ---       #98
      00FF0B80H   LINE      CODE     ---       #101
      00FF0B83H   LINE      CODE     ---       #104
      00FF0BA7H   LINE      CODE     ---       #106
L251 LINKER/LOCATER V4.66.93.0                                                        12/21/2021  22:07:38  PAGE 32


      00FF0BB1H   LINE      CODE     ---       #108
      00FF0BBBH   LINE      CODE     ---       #109
      00FF0BC2H   LINE      CODE     ---       #111
      00FF0BC5H   LINE      CODE     ---       #112
      00FF0BF3H   LINE      CODE     ---       #114
      00FF0BFAH   LINE      CODE     ---       #115
      00FF0BFDH   LINE      CODE     ---       #117
      00FF0C1FH   LINE      CODE     ---       #119
      00FF0C42H   LINE      CODE     ---       #121
      00FF0C4CH   LINE      CODE     ---       #123
      00FF0C64H   LINE      CODE     ---       #125
      00FF0C6EH   LINE      CODE     ---       #126
      00FF0C76H   LINE      CODE     ---       #127
      00FF0C7DH   LINE      CODE     ---       #128
      00FF0C80H   LINE      CODE     ---       #130
      00FF0C9EH   LINE      CODE     ---       #132
      00FF0CC1H   LINE      CODE     ---       #133
      00FF0CCBH   LINE      CODE     ---       #135
      00FF0CD3H   LINE      CODE     ---       #136
      00FF0CD9H   LINE      CODE     ---       #137
      00FF0CDFH   LINE      CODE     ---       #138
      00FF0CE2H   LINE      CODE     ---       #140
      00FF0CE5H   LINE      CODE     ---       #143
      00FF0D05H   LINE      CODE     ---       #145
      00FF0D0FH   LINE      CODE     ---       #147
      00FF0D16H   LINE      CODE     ---       #148
      00FF0D19H   LINE      CODE     ---       #150
      00FF0D3BH   LINE      CODE     ---       #152
      00FF0D42H   LINE      CODE     ---       #153
      00FF0D45H   LINE      CODE     ---       #155
      00FF0D61H   LINE      CODE     ---       #157
      00FF0D84H   LINE      CODE     ---       #159
      00FF0D8EH   LINE      CODE     ---       #160
      00FF0DA0H   LINE      CODE     ---       #162
      00FF0DAAH   LINE      CODE     ---       #163
      00FF0DAFH   LINE      CODE     ---       #164
      00FF0DB2H   LINE      CODE     ---       #167
      00FF0DD0H   LINE      CODE     ---       #169
      00FF0DF3H   LINE      CODE     ---       #170
      00FF0DFDH   LINE      CODE     ---       #171
      00FF0E05H   LINE      CODE     ---       #172
      00FF0E0BH   LINE      CODE     ---       #173
      00FF0E11H   LINE      CODE     ---       #174
      00FF0E17H   LINE      CODE     ---       #175
      00FF0E1DH   LINE      CODE     ---       #176
      00FF0E20H   LINE      CODE     ---       #177
      00FF0E22H   LINE      CODE     ---       #183
      00FF0E50H   LINE      CODE     ---       #186
      00FF0E5AH   LINE      CODE     ---       #189
      00FF0E5DH   LINE      CODE     ---       #190
      00FF0E8BH   LINE      CODE     ---       #192
      00FF0E95H   LINE      CODE     ---       #193
      00FF0E9BH   LINE      CODE     ---       #196
      00FF0E9EH   LINE      CODE     ---       #199
      00FF0ED4H   LINE      CODE     ---       #201
      00FF0EDEH   LINE      CODE     ---       #202
      00FF0EE2H   LINE      CODE     ---       #203
      00FF0EE4H   LINE      CODE     ---       #204
      00FF0EECH   LINE      CODE     ---       #206
      00FF0EFEH   LINE      CODE     ---       #208
      00FF0F00H   LINE      CODE     ---       #209
      00FF0F02H   LINE      CODE     ---       #210
      00FF0F14H   LINE      CODE     ---       #212
      00FF0F2BH   LINE      CODE     ---       #213
      00FF0F35H   LINE      CODE     ---       #214
L251 LINKER/LOCATER V4.66.93.0                                                        12/21/2021  22:07:38  PAGE 33


      00FF0F37H   LINE      CODE     ---       #217
      00FF0F54H   LINE      CODE     ---       #218
      00FF0F5EH   LINE      CODE     ---       #219
      00FF0F5EH   LINE      CODE     ---       #220
      00FF0F5EH   LINE      CODE     ---       #225
      00FF0F74H   LINE      CODE     ---       #226
      00FF0F8AH   LINE      CODE     ---       #227
      00FF0F96H   LINE      CODE     ---       #229
      00FF0FADH   LINE      CODE     ---       #230
      00FF0FB3H   LINE      CODE     ---       #231
      00FF0FB3H   LINE      CODE     ---       #232
      00FF0FB9H   LINE      CODE     ---       #234
      00FF0FC5H   LINE      CODE     ---       #235
      00FF0FDAH   LINE      CODE     ---       #236
      ---         BLOCKEND  ---      ---       LVL=0

      00FF133DH   BLOCK     CODE     ---       LVL=0
      00FF133DH   LINE      CODE     ---       #240
      00FF133DH   LINE      CODE     ---       #242
      00FF1349H   LINE      CODE     ---       #244
      00FF136CH   LINE      CODE     ---       #245
      00FF1374H   LINE      CODE     ---       #246
      00FF1374H   LINE      CODE     ---       #247
      00FF1392H   LINE      CODE     ---       #250
      00FF139CH   LINE      CODE     ---       #251
      00FF13A4H   LINE      CODE     ---       #252
      00FF13A6H   LINE      CODE     ---       #253
      00FF13B2H   LINE      CODE     ---       #255
      00FF13D7H   LINE      CODE     ---       #256
      00FF13DDH   LINE      CODE     ---       #257
      00FF13DDH   LINE      CODE     ---       #258
      00FF1401H   LINE      CODE     ---       #260
      00FF140BH   LINE      CODE     ---       #261
      00FF1413H   LINE      CODE     ---       #262
      00FF1413H   LINE      CODE     ---       #263
      00FF141FH   LINE      CODE     ---       #266
      00FF1442H   LINE      CODE     ---       #267
      00FF144CH   LINE      CODE     ---       #268
      00FF145EH   LINE      CODE     ---       #271
      00FF1466H   LINE      CODE     ---       #272
      00FF146CH   LINE      CODE     ---       #273
      00FF1472H   LINE      CODE     ---       #274
      00FF1478H   LINE      CODE     ---       #275
      00FF147EH   LINE      CODE     ---       #276
      00FF147EH   LINE      CODE     ---       #278
      ---         BLOCKEND  ---      ---       LVL=0

      00FF147FH   BLOCK     CODE     ---       LVL=0
      00010000H   SYMBOL    XDATA    ---       txt
      00FF147FH   LINE      CODE     ---       #293
      00FF147FH   LINE      CODE     ---       #294
      00FF147FH   LINE      CODE     ---       #296
      00FF14AAH   LINE      CODE     ---       #297
      00FF14B8H   LINE      CODE     ---       #298
      00FF14E3H   LINE      CODE     ---       #299
      00FF14F2H   LINE      CODE     ---       #300
      00FF151DH   LINE      CODE     ---       #301
      00FF152CH   LINE      CODE     ---       #302
      00FF1557H   LINE      CODE     ---       #303
      00FF1566H   LINE      CODE     ---       #304
      00FF1585H   LINE      CODE     ---       #305
      ---         BLOCKEND  ---      ---       LVL=0

      ---         MODULE    ---      ---       ?C?FPADD
      00FF00ACH   PUBLIC    CODE     ---       ?C?FPADD
L251 LINKER/LOCATER V4.66.93.0                                                        12/21/2021  22:07:38  PAGE 34


      00FF00A9H   PUBLIC    CODE     ---       ?C?FPSUB

      ---         MODULE    ---      ---       ?C?FPMUL
      00FF0164H   PUBLIC    CODE     ---       ?C?FPMUL

      ---         MODULE    ---      ---       ?C?FPDIV
      00FF0204H   PUBLIC    CODE     ---       ?C?FPDIV

      ---         MODULE    ---      ---       ?C?FCAST
      00FF028FH   PUBLIC    CODE     NEAR LAB  ?C?FCASTC
      00FF028AH   PUBLIC    CODE     NEAR LAB  ?C?FCASTI
      00FF0285H   PUBLIC    CODE     NEAR LAB  ?C?FCASTL

      ---         MODULE    ---      ---       ?C?CASTF
      00FF02C2H   PUBLIC    CODE     NEAR LAB  ?C?CASTF

      ---         MODULE    ---      ---       SPRINTF
      00010046H   PUBLIC    XDATA    ---       ?SPRINTF?BYTE
      00FF02FFH   PUBLIC    CODE     NEAR LAB  SPRINTF

      ---         MODULE    ---      ---       atan2

      ---         MODULE    ---      ---       ?C?FPGETOPN
      00FF031FH   PUBLIC    CODE     ---       ?C?FPGETOPN2
      00FF035CH   PUBLIC    CODE     ---       ?C?FPNANRESULT
      00FF0364H   PUBLIC    CODE     ---       ?C?FPOVERFLOW
      00FF0338H   PUBLIC    CODE     ---       ?C?FPRESULT
      00FF034EH   PUBLIC    CODE     ---       ?C?FPRESULT2
      00FF0361H   PUBLIC    CODE     ---       ?C?FPUNDERFLOW

      ---         MODULE    ---      ---       ?C?FPCMP
      00FF0372H   PUBLIC    CODE     ---       ?C?FPCMP
      00FF0370H   PUBLIC    CODE     ---       ?C?FPCMP3

      ---         MODULE    ---      ---       ?C?PRNFMT
      00FF03E3H   PUBLIC    CODE     ---       ?C?PRNFMT

      ---         MODULE    ---      ---       ATAN?_
      00FF0812H   PUBLIC    CODE     ---       ATAN?_

      ---         MODULE    ---      ---       ?C?FPCONVERT
      00FF08F2H   PUBLIC    CODE     ---       ?C?FPCONVERT
      00FF09AAH   PUBLIC    CODE     ---       ?C?FPROUND

      ---         MODULE    ---      ---       ?C?FPSERIES
      00FF09EDH   PUBLIC    CODE     ---       ?C?FP2SERIES
      00FF09F6H   PUBLIC    CODE     ---       ?C?FPSERIES

      ---         MODULE    ---      ---       ?C?FTNPWR
      00FF0A4AH   PUBLIC    CODE     ---       ?C?FTNPWR

      ---         MODULE    ---      ---       ?C_START
      00FF0000H   PUBLIC    CODE     ---       ?C?STARTUP
      00FF0000H   PUBLIC    CODE     ---       ?C_STARTUP

      ---         MODULE    ---      ---       ?C?INITHDATA
      00FF1B10H   PUBLIC    CODE     ---       ?C?INITHDATA

      ---         MODULE    ---      ---       ?C?SIDIV
      00FF0A81H   PUBLIC    CODE     ---       ?C?SIDIV

      ---         MODULE    ---      ---       ?C?LIMUL
      00FF0AB3H   PUBLIC    CODE     ---       ?C?LIMUL

      ---         MODULE    ---      ---       ?C?ULDIV
L251 LINKER/LOCATER V4.66.93.0                                                        12/21/2021  22:07:38  PAGE 35


      00FF0ABEH   PUBLIC    CODE     NEAR LAB  ?C?ULDIV
      00FF0ABCH   PUBLIC    CODE     NEAR LAB  ?C?ULIDIV

      ---         MODULE    ---      ---       ?C?SLDIV
      00FF0B0FH   PUBLIC    CODE     NEAR LAB  ?C?SLDIV

      ---         MODULE    ---      ---       ?C?BMOVEPP
      00FF0B45H   PUBLIC    CODE     ---       ?C?BMOVEPP
      00FF0B43H   PUBLIC    CODE     ---       ?C?BMOVEPP8

      ---         MODULE    ---      ---       ?C?INITHDATA_END
      00FF2D48H   PUBLIC    HCONST   WORD      ?C?INITHDATA_END

Program Size: data=16.0 edata+hdata=256 xdata=257 const=4408 code=7564
L251 RUN COMPLETE.  0 WARNING(S),  0 ERROR(S)
